(dp1
S'markers_green'
p2
(lp3
sS'RouteCoordinates'
p4
(lp5
sS'markers'
p6
(lp7
(lp8
S'2015-10-17 00:08:03'
p9
aF19.115471700000001
aF72.907309400000003
aS'red'
p10
aa(lp11
S'2015-10-17 00:08:09'
p12
aF19.115471700000001
aF72.907309400000003
ag10
aa(lp13
S'2015-10-17 00:08:14'
p14
aF19.115471700000001
aF72.907309400000003
ag10
aa(lp15
S'2015-10-17 00:08:19'
p16
aF19.115044300000001
aF72.906051500000004
ag10
aa(lp17
S'2015-10-17 00:08:24'
p18
aF19.115007299999998
aF72.906047599999994
ag10
aa(lp19
S'2015-10-17 00:08:29'
p20
aF19.114878300000001
aF72.906104900000003
ag10
aa(lp21
S'2015-10-17 00:08:34'
p22
aF19.114802900000001
aF72.906139400000001
ag10
aa(lp23
S'2015-10-17 00:08:39'
p24
aF19.114802900000001
aF72.906139400000001
ag10
aa(lp25
S'2015-10-17 00:08:44'
p26
aF19.114802900000001
aF72.906139400000001
ag10
aa(lp27
S'2015-10-17 00:08:49'
p28
aF19.114453300000001
aF72.907141699999997
ag10
aa(lp29
S'2015-10-17 00:08:54'
p30
aF19.114459100000001
aF72.907224099999993
ag10
aa(lp31
S'2015-10-17 00:09:00'
p32
aF19.114470399999998
aF72.907348200000001
ag10
aa(lp33
S'2015-10-17 00:09:05'
p34
aF19.1144833
aF72.9074794
ag10
aa(lp35
S'2015-10-17 00:09:10'
p36
aF19.1144833
aF72.9074794
ag10
aa(lp37
S'2015-10-17 00:09:15'
p38
aF19.1144833
aF72.9074794
ag10
aa(lp39
S'2015-10-17 00:09:20'
p40
aF19.114593200000002
aF72.908601000000004
ag10
aa(lp41
S'2015-10-17 00:09:25'
p42
aF19.114603800000001
aF72.908682099999993
ag10
aa(lp43
S'2015-10-17 00:09:30'
p44
aF19.1146268
aF72.908984599999997
ag10
aa(lp45
S'2015-10-17 00:09:35'
p46
aF19.1146268
aF72.908984599999997
ag10
aa(lp47
S'2015-10-17 00:09:40'
p48
aF19.1146268
aF72.908984599999997
ag10
aa(lp49
S'2015-10-17 00:09:45'
p50
aF19.114659400000001
aF72.909412000000003
ag10
aa(lp51
S'2015-10-17 00:09:50'
p52
aF19.114659400000001
aF72.909412000000003
ag10
aa(lp53
S'2015-10-17 00:09:55'
p54
aF19.114659400000001
aF72.909412000000003
ag10
aa(lp55
S'2015-10-17 00:10:00'
p56
aF19.114659400000001
aF72.909412000000003
ag10
aa(lp57
S'2015-10-17 00:10:05'
p58
aF19.117218600000001
aF72.9110163
ag10
aa(lp59
S'2015-10-17 00:10:16'
p60
aF19.1170711
aF72.910844699999998
ag10
aa(lp61
S'2015-10-17 00:10:21'
p62
aF19.117048100000002
aF72.910804999999996
ag10
aa(lp63
S'2015-10-17 00:10:26'
p64
aF19.117060200000001
aF72.910729700000005
ag10
aa(lp65
S'2015-10-17 00:10:31'
p66
aF19.116966099999999
aF72.909930299999999
ag10
aa(lp67
S'2015-10-17 00:10:32'
p68
aF19.116942600000002
aF72.909891700000003
ag10
aa(lp69
S'2015-10-17 00:10:33'
p70
aF19.1169309
aF72.909849300000005
ag10
aa(lp71
S'2015-10-17 00:10:34'
p72
aF19.116918999999999
aF72.909807099999995
ag10
aa(lp73
S'2015-10-17 00:10:35'
p74
aF19.116887200000001
aF72.909751200000002
ag10
aa(lp75
S'2015-10-17 00:10:36'
p76
aF19.116843200000002
aF72.909713100000005
ag10
aa(lp77
S'2015-10-17 00:10:37'
p78
aF19.116756599999999
aF72.909600600000005
ag10
aa(lp79
S'2015-10-17 00:10:38'
p80
aF19.1167415
aF72.909556800000004
ag10
aa(lp81
S'2015-10-17 00:10:39'
p82
aF19.1167275
aF72.909510999999995
ag10
aa(lp83
S'2015-10-17 00:10:40'
p84
aF19.1166722
aF72.909535199999993
ag10
aa(lp85
S'2015-10-17 00:10:41'
p86
aF19.116651900000001
aF72.909500300000005
ag10
aa(lp87
S'2015-10-17 00:10:42'
p88
aF19.1166327
aF72.909464600000007
ag10
aa(lp89
S'2015-10-17 00:10:43'
p90
aF19.116590500000001
aF72.909473500000004
ag10
aa(lp91
S'2015-10-17 00:10:44'
p92
aF19.1165454
aF72.909498400000004
ag10
aa(lp93
S'2015-10-17 00:10:45'
p94
aF19.116522700000001
aF72.909476900000001
ag10
aa(lp95
S'2015-10-17 00:10:46'
p96
aF19.116454099999999
aF72.909378700000005
ag10
aa(lp97
S'2015-10-17 00:10:47'
p98
aF19.116420999999999
aF72.9093448
ag10
aa(lp99
S'2015-10-17 00:10:48'
p100
aF19.116379599999998
aF72.909300099999996
ag10
aa(lp101
S'2015-10-17 00:10:49'
p102
aF19.116351099999999
aF72.909291999999994
ag10
aa(lp103
S'2015-10-17 00:10:50'
p104
aF19.1163189
aF72.909257699999998
ag10
aa(lp105
S'2015-10-17 00:10:51'
p106
aF19.116284199999999
aF72.909218999999993
ag10
aa(lp107
S'2015-10-17 00:10:52'
p108
aF19.1162451
aF72.909170200000005
ag10
aa(lp109
S'2015-10-17 00:10:53'
p110
aF19.116268099999999
aF72.909033899999997
ag10
aa(lp111
S'2015-10-17 00:10:54'
p112
aF19.116213200000001
aF72.909035000000003
ag10
aa(lp113
S'2015-10-17 00:10:55'
p114
aF19.116153799999999
aF72.9090487
ag10
aa(lp115
S'2015-10-17 00:10:56'
p116
aF19.116122300000001
aF72.908979299999999
ag10
aa(lp117
S'2015-10-17 00:10:57'
p118
aF19.116090700000001
aF72.908934099999996
ag10
aa(lp119
S'2015-10-17 00:10:58'
p120
aF19.1159392
aF72.908856099999994
ag10
aas.