(dp1
S'markers_green'
p2
(lp3
(lp4
S'9.96067374093'
p5
acnumpy.core.multiarray
scalar
p6
(cnumpy
dtype
p7
(S'f8'
I0
I1
tRp8
(I3
S'<'
NNNI-1
I-1
I0
tbS'\xeb\xe7\xab;R\x1d3@'
tRp9
ag6
(g8
S'\x05\x81\xb9\x1f\x1f:R@'
tRp10
aS'green'
p11
aa(lp12
S'10.1544815867'
p13
ag6
(g8
S'\xeb\xe7\xab;R\x1d3@'
tRp14
ag6
(g8
S'\xf61\xe6\xd5\x1f:R@'
tRp15
ag11
aa(lp16
S'10.1761176266'
p17
ag6
(g8
S'\xeb\xe7\xab;R\x1d3@'
tRp18
ag6
(g8
S'\xe6\xe2\x12\x8c :R@'
tRp19
ag11
aa(lp20
S'10.0632615523'
p21
ag6
(g8
S'\xeb\xe7\xab;R\x1d3@'
tRp22
ag6
(g8
S'\xd6\x93?B!:R@'
tRp23
ag11
aa(lp24
S'10.6953582764'
p25
ag6
(g8
S'og\xba\xfdS\x1d3@'
tRp26
ag6
(g8
S'%\x1f`\xb3\x1d:R@'
tRp27
ag11
aa(lp28
S'10.0960148403'
p29
ag6
(g8
S'og\xba\xfdS\x1d3@'
tRp30
ag6
(g8
S'\x15\xd0\x8ci\x1e:R@'
tRp31
ag11
aa(lp32
S'10.5036392212'
p33
ag6
(g8
S'og\xba\xfdS\x1d3@'
tRp34
ag6
(g8
S'\xd6\x93?B!:R@'
tRp35
ag11
aa(lp36
S'10.0193151218'
p37
ag6
(g8
S'og\xba\xfdS\x1d3@'
tRp38
ag6
(g8
S'\xc6Dl\xf8!:R@'
tRp39
ag11
aa(lp40
S'10.0874376831'
p41
ag6
(g8
S'og\xba\xfdS\x1d3@'
tRp42
ag6
(g8
S'\xb6\xf5\x98\xae":R@'
tRp43
ag11
aa(lp44
S'10.352822876'
p45
ag6
(g8
S'og\xba\xfdS\x1d3@'
tRp46
ag6
(g8
S'\xa6\xa6\xc5d#:R@'
tRp47
ag11
aa(lp48
S'9.71440734863'
p49
ag6
(g8
S'og\xba\xfdS\x1d3@'
tRp50
ag6
(g8
S'\x96W\xf2\x1a$:R@'
tRp51
ag11
aa(lp52
S'8.25928649902'
p53
ag6
(g8
S'og\xba\xfdS\x1d3@'
tRp54
ag6
(g8
S'\x86\x08\x1f\xd1$:R@'
tRp55
ag11
aa(lp56
S'9.7922454834'
p57
ag6
(g8
S'og\xba\xfdS\x1d3@'
tRp58
ag6
(g8
S'w\xb9K\x87%:R@'
tRp59
ag11
aa(lp60
S'9.60157775879'
p61
ag6
(g8
S'og\xba\xfdS\x1d3@'
tRp62
ag6
(g8
S'gjx=&:R@'
tRp63
ag11
aa(lp64
S'9.61300354004'
p65
ag6
(g8
S'og\xba\xfdS\x1d3@'
tRp66
ag6
(g8
S'W\x1b\xa5\xf3&:R@'
tRp67
ag11
aa(lp68
S'9.00981750488'
p69
ag6
(g8
S'og\xba\xfdS\x1d3@'
tRp70
ag6
(g8
S"G\xcc\xd1\xa9':R@"
tRp71
ag11
aa(lp72
S'8.73964538574'
p73
ag6
(g8
S'og\xba\xfdS\x1d3@'
tRp74
ag6
(g8
S'7}\xfe_(:R@'
tRp75
ag11
aa(lp76
S'9.32831115723'
p77
ag6
(g8
S'og\xba\xfdS\x1d3@'
tRp78
ag6
(g8
S"'.+\x16):R@"
tRp79
ag11
aa(lp80
S'9.9952911377'
p81
ag6
(g8
S'og\xba\xfdS\x1d3@'
tRp82
ag6
(g8
S'\x17\xdfW\xcc):R@'
tRp83
ag11
aa(lp84
S'9.11598205566'
p85
ag6
(g8
S'og\xba\xfdS\x1d3@'
tRp86
ag6
(g8
S'\x08\x90\x84\x82*:R@'
tRp87
ag11
aa(lp88
S'8.38020935059'
p89
ag6
(g8
S'og\xba\xfdS\x1d3@'
tRp90
ag6
(g8
S'\xf8@\xb18+:R@'
tRp91
ag11
aa(lp92
S'9.85865783691'
p93
ag6
(g8
S'og\xba\xfdS\x1d3@'
tRp94
ag6
(g8
S'\xc8S7[-:R@'
tRp95
ag11
aa(lp96
S'3.46045837402'
p97
ag6
(g8
S'og\xba\xfdS\x1d3@'
tRp98
ag6
(g8
S'\xb8\x04d\x11.:R@'
tRp99
ag11
aa(lp100
S'3.33072814941'
p101
ag6
(g8
S'og\xba\xfdS\x1d3@'
tRp102
ag6
(g8
S'\xa8\xb5\x90\xc7.:R@'
tRp103
ag11
aa(lp104
S'7.84795837402'
p105
ag6
(g8
S'og\xba\xfdS\x1d3@'
tRp106
ag6
(g8
S'\x98f\xbd}/:R@'
tRp107
ag11
aa(lp108
S'10.4882659912'
p109
ag6
(g8
S'og\xba\xfdS\x1d3@'
tRp110
ag6
(g8
S'\x89\x17\xea30:R@'
tRp111
ag11
aa(lp112
S'10.6406097412'
p113
ag6
(g8
S'og\xba\xfdS\x1d3@'
tRp114
ag6
(g8
S'iyC\xa01:R@'
tRp115
ag11
aa(lp116
S'7.15550842285'
p117
ag6
(g8
S'og\xba\xfdS\x1d3@'
tRp118
ag6
(g8
S'Y*pV2:R@'
tRp119
ag11
aa(lp120
S'8.84628601074'
p121
ag6
(g8
S'og\xba\xfdS\x1d3@'
tRp122
ag6
(g8
S'I\xdb\x9c\x0c3:R@'
tRp123
ag11
aa(lp124
S'9.89007873535'
p125
ag6
(g8
S'og\xba\xfdS\x1d3@'
tRp126
ag6
(g8
S'9\x8c\xc9\xc23:R@'
tRp127
ag11
aa(lp128
S'10.3261627197'
p129
ag6
(g8
S'og\xba\xfdS\x1d3@'
tRp130
ag6
(g8
S')=\xf6x4:R@'
tRp131
ag11
aa(lp132
S'10.0058441162'
p133
ag6
(g8
S'og\xba\xfdS\x1d3@'
tRp134
ag6
(g8
S'\x19\xee"/5:R@'
tRp135
ag11
aa(lp136
S'9.46875305176'
p137
ag6
(g8
S'og\xba\xfdS\x1d3@'
tRp138
ag6
(g8
S'\n\x9fO\xe55:R@'
tRp139
ag11
aa(lp140
S'9.25428161621'
p141
ag6
(g8
S'og\xba\xfdS\x1d3@'
tRp142
ag6
(g8
S'\xfaO|\x9b6:R@'
tRp143
ag11
aa(lp144
S'9.31117248535'
p145
ag6
(g8
S'og\xba\xfdS\x1d3@'
tRp146
ag6
(g8
S'\xea\x00\xa9Q7:R@'
tRp147
ag11
aa(lp148
S'9.80962219238'
p149
ag6
(g8
S'og\xba\xfdS\x1d3@'
tRp150
ag6
(g8
S'\xda\xb1\xd5\x078:R@'
tRp151
ag11
aa(lp152
S'9.5308807373'
p153
ag6
(g8
S'og\xba\xfdS\x1d3@'
tRp154
ag6
(g8
S'\xcab\x02\xbe8:R@'
tRp155
ag11
aa(lp156
S'9.71440734863'
p157
ag6
(g8
S'og\xba\xfdS\x1d3@'
tRp158
ag6
(g8
S'\xba\x13/t9:R@'
tRp159
ag11
aa(lp160
S'9.27713317871'
p161
ag6
(g8
S'og\xba\xfdS\x1d3@'
tRp162
ag6
(g8
S'\xaa\xc4[*::R@'
tRp163
ag11
aa(lp164
S'10.2956939697'
p165
ag6
(g8
S'og\xba\xfdS\x1d3@'
tRp166
ag6
(g8
S'\x9au\x88\xe0::R@'
tRp167
ag11
aa(lp168
S'10.0224273682'
p169
ag6
(g8
S'og\xba\xfdS\x1d3@'
tRp170
ag6
(g8
S'\x8b&\xb5\x96;:R@'
tRp171
ag11
aa(lp172
S'10.5256378174'
p173
ag6
(g8
S'og\xba\xfdS\x1d3@'
tRp174
ag6
(g8
S'{\xd7\xe1L<:R@'
tRp175
ag11
aa(lp176
S'9.84532775879'
p177
ag6
(g8
S'og\xba\xfdS\x1d3@'
tRp178
ag6
(g8
S'k\x88\x0e\x03=:R@'
tRp179
ag11
aa(lp180
S'9.03861999512'
p181
ag6
(g8
S'og\xba\xfdS\x1d3@'
tRp182
ag6
(g8
S'[9;\xb9=:R@'
tRp183
ag11
aa(lp184
S'10.5784820557'
p185
ag6
(g8
S'og\xba\xfdS\x1d3@'
tRp186
ag6
(g8
S'K\xeago>:R@'
tRp187
ag11
aa(lp188
S'10.0412322998'
p189
ag6
(g8
S'og\xba\xfdS\x1d3@'
tRp190
ag6
(g8
S';\x9b\x94%?:R@'
tRp191
ag11
aa(lp192
S'10.6234710693'
p193
ag6
(g8
S'og\xba\xfdS\x1d3@'
tRp194
ag6
(g8
S'+L\xc1\xdb?:R@'
tRp195
ag11
aa(lp196
S'10.6975006104'
p197
ag6
(g8
S'og\xba\xfdS\x1d3@'
tRp198
ag6
(g8
S'\x1c\xfd\xed\x91@:R@'
tRp199
ag11
aa(lp200
S'9.5865814209'
p201
ag6
(g8
S'og\xba\xfdS\x1d3@'
tRp202
ag6
(g8
S'\x0c\xae\x1aHA:R@'
tRp203
ag11
aa(lp204
S'9.34830627441'
p205
ag6
(g8
S'og\xba\xfdS\x1d3@'
tRp206
ag6
(g8
S'\xfc^G\xfeA:R@'
tRp207
ag11
aa(lp208
S'9.68155822754'
p209
ag6
(g8
S'og\xba\xfdS\x1d3@'
tRp210
ag6
(g8
S'\xec\x0ft\xb4B:R@'
tRp211
ag11
aa(lp212
S'9.82676086426'
p213
ag6
(g8
S'og\xba\xfdS\x1d3@'
tRp214
ag6
(g8
S'\xdc\xc0\xa0jC:R@'
tRp215
ag11
aa(lp216
S'10.6365631104'
p217
ag6
(g8
S'og\xba\xfdS\x1d3@'
tRp218
ag6
(g8
S'\xccq\xcd D:R@'
tRp219
ag11
aa(lp220
S'10.7482025146'
p221
ag6
(g8
S'og\xba\xfdS\x1d3@'
tRp222
ag6
(g8
S'\xbc"\xfa\xd6D:R@'
tRp223
ag11
aa(lp224
S'8.87675476074'
p225
ag6
(g8
S'og\xba\xfdS\x1d3@'
tRp226
ag6
(g8
S'\xac\xd3&\x8dE:R@'
tRp227
ag11
aa(lp228
S'10.4654144287'
p229
ag6
(g8
S'og\xba\xfdS\x1d3@'
tRp230
ag6
(g8
S'\x9d\x84SCF:R@'
tRp231
ag11
aa(lp232
S'9.88460388184'
p233
ag6
(g8
S'og\xba\xfdS\x1d3@'
tRp234
ag6
(g8
S'\x8d5\x80\xf9F:R@'
tRp235
ag11
aa(lp236
S'9.77605895996'
p237
ag6
(g8
S'og\xba\xfdS\x1d3@'
tRp238
ag6
(g8
S'}\xe6\xac\xafG:R@'
tRp239
ag11
aa(lp240
S'10.6501312256'
p241
ag6
(g8
S'og\xba\xfdS\x1d3@'
tRp242
ag6
(g8
S'm\x97\xd9eH:R@'
tRp243
ag11
aa(lp244
S'10.0064693604'
p245
ag6
(g8
S'og\xba\xfdS\x1d3@'
tRp246
ag6
(g8
S']H\x06\x1cI:R@'
tRp247
ag11
aa(lp248
S'9.79398457177'
p249
ag6
(g8
S'og\xba\xfdS\x1d3@'
tRp250
ag6
(g8
S'M\xf92\xd2I:R@'
tRp251
ag11
aa(lp252
S'9.84992980957'
p253
ag6
(g8
S'\xf3\xe6\xc8\xbfU\x1d3@'
tRp254
ag6
(g8
S'5n3\xfd\x1c:R@'
tRp255
ag11
aa(lp256
S'9.88930511475'
p257
ag6
(g8
S'\xf3\xe6\xc8\xbfU\x1d3@'
tRp258
ag6
(g8
S'%\x1f`\xb3\x1d:R@'
tRp259
ag11
aa(lp260
S'9.7261505127'
p261
ag6
(g8
S'\xf3\xe6\xc8\xbfU\x1d3@'
tRp262
ag6
(g8
S'M\xf92\xd2I:R@'
tRp263
ag11
aa(lp264
S'10.6267242432'
p265
ag6
(g8
S'wf\xd7\x81W\x1d3@'
tRp266
ag6
(g8
S'U\x0c\xda\x90\x1b:R@'
tRp267
ag11
aa(lp268
S'10.1691262381'
p269
ag6
(g8
S'wf\xd7\x81W\x1d3@'
tRp270
ag6
(g8
S'E\xbd\x06G\x1c:R@'
tRp271
ag11
aa(lp272
S'9.38655090332'
p273
ag6
(g8
S'wf\xd7\x81W\x1d3@'
tRp274
ag6
(g8
S'M\xf92\xd2I:R@'
tRp275
ag11
aa(lp276
S'10.0917358398'
p277
ag6
(g8
S'\xfa\xe5\xe5CY\x1d3@'
tRp278
ag6
(g8
S'e[\xad\xda\x1a:R@'
tRp279
ag11
aa(lp280
S'8.99071502686'
p281
ag6
(g8
S'\xfa\xe5\xe5CY\x1d3@'
tRp282
ag6
(g8
S'U\x0c\xda\x90\x1b:R@'
tRp283
ag11
aa(lp284
S'9.16676330566'
p285
ag6
(g8
S'\xfa\xe5\xe5CY\x1d3@'
tRp286
ag6
(g8
S'M\xf92\xd2I:R@'
tRp287
ag11
aa(lp288
S'10.5697937012'
p289
ag6
(g8
S'~e\xf4\x05[\x1d3@'
tRp290
ag6
(g8
S'\x84\xf9Sn\x19:R@'
tRp291
ag11
aa(lp292
S'10.4493299212'
p293
ag6
(g8
S'~e\xf4\x05[\x1d3@'
tRp294
ag6
(g8
S'u\xaa\x80$\x1a:R@'
tRp295
ag11
aa(lp296
S'10.1002655029'
p297
ag6
(g8
S'~e\xf4\x05[\x1d3@'
tRp298
ag6
(g8
S'e[\xad\xda\x1a:R@'
tRp299
ag11
aa(lp300
S'9.81890563965'
p301
ag6
(g8
S'\x02\xe5\x02\xc8\\\x1d3@'
tRp302
ag6
(g8
S"\x94H'\xb8\x18:R@"
tRp303
ag11
aa(lp304
S'10.3294952393'
p305
ag6
(g8
S'\x02\xe5\x02\xc8\\\x1d3@'
tRp306
ag6
(g8
S'\x84\xf9Sn\x19:R@'
tRp307
ag11
aa(lp308
S'10.3997955322'
p309
ag6
(g8
S'\x02\xe5\x02\xc8\\\x1d3@'
tRp310
ag6
(g8
S'M\xf92\xd2I:R@'
tRp311
ag11
aa(lp312
S'10.3871002197'
p313
ag6
(g8
S'\x86d\x11\x8a^\x1d3@'
tRp314
ag6
(g8
S'\xb4\xe6\xcdK\x17:R@'
tRp315
ag11
aa(lp316
S'10.1590946742'
p317
ag6
(g8
S'\x86d\x11\x8a^\x1d3@'
tRp318
ag6
(g8
S'\xa4\x97\xfa\x01\x18:R@'
tRp319
ag11
aa(lp320
S'9.48612976074'
p321
ag6
(g8
S'\x86d\x11\x8a^\x1d3@'
tRp322
ag6
(g8
S"\x94H'\xb8\x18:R@"
tRp323
ag11
aa(lp324
S'10.5092926025'
p325
ag6
(g8
S'\x86d\x11\x8a^\x1d3@'
tRp326
ag6
(g8
S'M\xf92\xd2I:R@'
tRp327
ag11
aa(lp328
S'10.0202850342'
p329
ag6
(g8
S'\n\xe4\x1fL`\x1d3@'
tRp330
ag6
(g8
S'\xc45\xa1\x95\x16:R@'
tRp331
ag11
aa(lp332
S'10.0964569092'
p333
ag6
(g8
S'\n\xe4\x1fL`\x1d3@'
tRp334
ag6
(g8
S'\xb4\xe6\xcdK\x17:R@'
tRp335
ag11
aa(lp336
S'9.41432189941'
p337
ag6
(g8
S'\n\xe4\x1fL`\x1d3@'
tRp338
ag6
(g8
S'M\xf92\xd2I:R@'
tRp339
ag11
aa(lp340
S'10.6644134521'
p341
ag6
(g8
S'\x8ec.\x0eb\x1d3@'
tRp342
ag6
(g8
S'\xe4\xd3G)\x15:R@'
tRp343
ag11
aa(lp344
S'10.2991965158'
p345
ag6
(g8
S'\x8ec.\x0eb\x1d3@'
tRp346
ag6
(g8
S'\xd4\x84t\xdf\x15:R@'
tRp347
ag11
aa(lp348
S'10.9548187256'
p349
ag6
(g8
S'\x8ec.\x0eb\x1d3@'
tRp350
ag6
(g8
S'\xc45\xa1\x95\x16:R@'
tRp351
ag11
aa(lp352
S'10.4251861572'
p353
ag6
(g8
S'\x8ec.\x0eb\x1d3@'
tRp354
ag6
(g8
S'M\xf92\xd2I:R@'
tRp355
ag11
aa(lp356
S'9.81557312012'
p357
ag6
(g8
S'\x11\xe3<\xd0c\x1d3@'
tRp358
ag6
(g8
S'\xf3"\x1bs\x14:R@'
tRp359
ag11
aa(lp360
S'9.9852142334'
p361
ag6
(g8
S'\x11\xe3<\xd0c\x1d3@'
tRp362
ag6
(g8
S'\xe4\xd3G)\x15:R@'
tRp363
ag11
aa(lp364
S'8.83390808105'
p365
ag6
(g8
S'\x11\xe3<\xd0c\x1d3@'
tRp366
ag6
(g8
S'M\xf92\xd2I:R@'
tRp367
ag11
aa(lp368
S'10.1169281006'
p369
ag6
(g8
S'\x95bK\x92e\x1d3@'
tRp370
ag6
(g8
S'\x13\xc1\xc1\x06\x13:R@'
tRp371
ag11
aa(lp372
S'9.95999363491'
p373
ag6
(g8
S'\x95bK\x92e\x1d3@'
tRp374
ag6
(g8
S'\x03r\xee\xbc\x13:R@'
tRp375
ag11
aa(lp376
S'9.93899536133'
p377
ag6
(g8
S'\x95bK\x92e\x1d3@'
tRp378
ag6
(g8
S'\xf3"\x1bs\x14:R@'
tRp379
ag11
aa(lp380
S'10.2966461182'
p381
ag6
(g8
S'\x95bK\x92e\x1d3@'
tRp382
ag6
(g8
S'M\xf92\xd2I:R@'
tRp383
ag11
aa(lp384
S'9.61377716064'
p385
ag6
(g8
S'\x19\xe2YTg\x1d3@'
tRp386
ag6
(g8
S'#\x10\x95P\x12:R@'
tRp387
ag11
aa(lp388
S'10.3265991211'
p389
ag6
(g8
S'\x19\xe2YTg\x1d3@'
tRp390
ag6
(g8
S'\x13\xc1\xc1\x06\x13:R@'
tRp391
ag11
aa(lp392
S'10.1165313721'
p393
ag6
(g8
S'\x19\xe2YTg\x1d3@'
tRp394
ag6
(g8
S'M\xf92\xd2I:R@'
tRp395
ag11
aa(lp396
S'10.1414119176'
p397
ag6
(g8
S'\x9dah\x16i\x1d3@'
tRp398
ag6
(g8
S'3_h\x9a\x11:R@'
tRp399
ag11
aa(lp400
S'9.89317321777'
p401
ag6
(g8
S'\x9dah\x16i\x1d3@'
tRp402
ag6
(g8
S'#\x10\x95P\x12:R@'
tRp403
ag11
aa(lp404
S'10.6080780029'
p405
ag6
(g8
S'\x9dah\x16i\x1d3@'
tRp406
ag6
(g8
S'M\xf92\xd2I:R@'
tRp407
ag11
aa(lp408
S'10.7051773071'
p409
ag6
(g8
S'!\xe1v\xd8j\x1d3@'
tRp410
ag6
(g8
S'S\xfd\x0e.\x10:R@'
tRp411
ag11
aa(lp412
S'10.3005567278'
p413
ag6
(g8
S'!\xe1v\xd8j\x1d3@'
tRp414
ag6
(g8
S'C\xae;\xe4\x10:R@'
tRp415
ag11
aa(lp416
S'8.55123901367'
p417
ag6
(g8
S'!\xe1v\xd8j\x1d3@'
tRp418
ag6
(g8
S'M\xf92\xd2I:R@'
tRp419
ag11
aa(lp420
S'10.1225389753'
p421
ag6
(g8
S'\xa5`\x85\x9al\x1d3@'
tRp422
ag6
(g8
S'cL\xe2w\x0f:R@'
tRp423
ag11
aa(lp424
S'9.18461608887'
p425
ag6
(g8
S'\xa5`\x85\x9al\x1d3@'
tRp426
ag6
(g8
S'S\xfd\x0e.\x10:R@'
tRp427
ag11
aa(lp428
S'10.4156646729'
p429
ag6
(g8
S'\xa5`\x85\x9al\x1d3@'
tRp430
ag6
(g8
S'M\xf92\xd2I:R@'
tRp431
ag11
aa(lp432
S'10.2097625732'
p433
ag6
(g8
S'(\xe0\x93\\n\x1d3@'
tRp434
ag6
(g8
S'\x82\xea\x88\x0b\x0e:R@'
tRp435
ag11
aa(lp436
S'10.0028403146'
p437
ag6
(g8
S'(\xe0\x93\\n\x1d3@'
tRp438
ag6
(g8
S'r\x9b\xb5\xc1\x0e:R@'
tRp439
ag11
aa(lp440
S'10.5272445679'
p441
ag6
(g8
S'\xac_\xa2\x1ep\x1d3@'
tRp442
ag6
(g8
S'\x82\xea\x88\x0b\x0e:R@'
tRp443
ag11
aa(lp444
S'9.99354553223'
p445
ag6
(g8
S'\xac_\xa2\x1ep\x1d3@'
tRp446
ag6
(g8
S'M\xf92\xd2I:R@'
tRp447
ag11
aa(lp448
S'9.5103302002'
p449
ag6
(g8
S'0\xdf\xb0\xe0q\x1d3@'
tRp450
ag6
(g8
S'\xb2\xd7\x02\xe9\x0b:R@'
tRp451
ag11
aa(lp452
S'10.5527060372'
p453
ag6
(g8
S'0\xdf\xb0\xe0q\x1d3@'
tRp454
ag6
(g8
S'\xa2\x88/\x9f\x0c:R@'
tRp455
ag11
aa(lp456
S'7.36402893066'
p457
ag6
(g8
S'0\xdf\xb0\xe0q\x1d3@'
tRp458
ag6
(g8
S'\x929\\U\r:R@'
tRp459
ag11
aa(lp460
S'9.94950866699'
p461
ag6
(g8
S'0\xdf\xb0\xe0q\x1d3@'
tRp462
ag6
(g8
S'=\xaa_\x88J:R@'
tRp463
ag11
aa(lp464
S'8.44114685059'
p465
ag6
(g8
S'\xb4^\xbf\xa2s\x1d3@'
tRp466
ag6
(g8
S'\xc2&\xd62\x0b:R@'
tRp467
ag11
aa(lp468
S'9.53135681152'
p469
ag6
(g8
S'\xb4^\xbf\xa2s\x1d3@'
tRp470
ag6
(g8
S'\xb2\xd7\x02\xe9\x0b:R@'
tRp471
ag11
aa(lp472
S'8.38362121582'
p473
ag6
(g8
S'\xb4^\xbf\xa2s\x1d3@'
tRp474
ag6
(g8
S'=\xaa_\x88J:R@'
tRp475
ag11
aa(lp476
S'10.0223933629'
p477
ag6
(g8
S'8\xde\xcddu\x1d3@'
tRp478
ag6
(g8
S'\xd2u\xa9|\n:R@'
tRp479
ag11
aa(lp480
S'8.95530700684'
p481
ag6
(g8
S'8\xde\xcddu\x1d3@'
tRp482
ag6
(g8
S'\xc2&\xd62\x0b:R@'
tRp483
ag11
aa(lp484
S'9.75749206543'
p485
ag6
(g8
S'8\xde\xcddu\x1d3@'
tRp486
ag6
(g8
S'=\xaa_\x88J:R@'
tRp487
ag11
aa(lp488
S'9.97393580845'
p489
ag6
(g8
S'\xbc]\xdc&w\x1d3@'
tRp490
ag6
(g8
S'\xf1\x13P\x10\t:R@'
tRp491
ag11
aa(lp492
S'10.69506073'
p493
ag6
(g8
S'\xbc]\xdc&w\x1d3@'
tRp494
ag6
(g8
S'\xe2\xc4|\xc6\t:R@'
tRp495
ag11
aa(lp496
S'10.9056243896'
p497
ag6
(g8
S'\xbc]\xdc&w\x1d3@'
tRp498
ag6
(g8
S'=\xaa_\x88J:R@'
tRp499
ag11
aa(lp500
S'6.54002380371'
p501
ag6
(g8
S'?\xdd\xea\xe8x\x1d3@'
tRp502
ag6
(g8
S'\x11\xb2\xf6\xa3\x07:R@'
tRp503
ag11
aa(lp504
S'8.29985482352'
p505
ag6
(g8
S'?\xdd\xea\xe8x\x1d3@'
tRp506
ag6
(g8
S'\x01c#Z\x08:R@'
tRp507
ag11
aa(lp508
S'9.86976623535'
p509
ag6
(g8
S'?\xdd\xea\xe8x\x1d3@'
tRp510
ag6
(g8
S'=\xaa_\x88J:R@'
tRp511
ag11
aa(lp512
S'9.88692474365'
p513
ag6
(g8
S'\xc3\\\xf9\xaaz\x1d3@'
tRp514
ag6
(g8
S'\x11\xb2\xf6\xa3\x07:R@'
tRp515
ag11
aa(lp516
S'8.96661376953'
p517
ag6
(g8
S'\xc3\\\xf9\xaaz\x1d3@'
tRp518
ag6
(g8
S'=\xaa_\x88J:R@'
tRp519
ag11
aa(lp520
S'9.98360420894'
p521
ag6
(g8
S'G\xdc\x07m|\x1d3@'
tRp522
ag6
(g8
S'!\x01\xca\xed\x06:R@'
tRp523
ag11
aa(lp524
S'10.1633103315'
p525
ag6
(g8
S'G\xdc\x07m|\x1d3@'
tRp526
ag6
(g8
S'\x11\xb2\xf6\xa3\x07:R@'
tRp527
ag11
aa(lp528
S'10.040008109'
p529
ag6
(g8
S'G\xdc\x07m|\x1d3@'
tRp530
ag6
(g8
S'\x01c#Z\x08:R@'
tRp531
ag11
aa(lp532
S'10.5668182373'
p533
ag6
(g8
S'G\xdc\x07m|\x1d3@'
tRp534
ag6
(g8
S'\xf1\x13P\x10\t:R@'
tRp535
ag11
aa(lp536
S'9.78572591146'
p537
ag6
(g8
S'\xcb[\x16/~\x1d3@'
tRp538
ag6
(g8
S'\xf1\x13P\x10\t:R@'
tRp539
ag11
aa(lp540
S'9.9682599236'
p541
ag6
(g8
S'\xcb[\x16/~\x1d3@'
tRp542
ag6
(g8
S'\xe2\xc4|\xc6\t:R@'
tRp543
ag11
aa(lp544
S'10.0177926456'
p545
ag6
(g8
S'\xcb[\x16/~\x1d3@'
tRp546
ag6
(g8
S'\xd2u\xa9|\n:R@'
tRp547
ag11
aa(lp548
S'10.3345280239'
p549
ag6
(g8
S'\xcb[\x16/~\x1d3@'
tRp550
ag6
(g8
S'\xc2&\xd62\x0b:R@'
tRp551
ag11
aa(lp552
S'8.53755187988'
p553
ag6
(g8
S'\xcb[\x16/~\x1d3@'
tRp554
ag6
(g8
S'\xb2\xd7\x02\xe9\x0b:R@'
tRp555
ag11
aa(lp556
S'8.3931427002'
p557
ag6
(g8
S'\xcb[\x16/~\x1d3@'
tRp558
ag6
(g8
S'=\xaa_\x88J:R@'
tRp559
ag11
aa(lp560
S'10.1000735375'
p561
ag6
(g8
S'O\xdb$\xf1\x7f\x1d3@'
tRp562
ag6
(g8
S'\xb2\xd7\x02\xe9\x0b:R@'
tRp563
ag11
aa(lp564
S'10.1123260498'
p565
ag6
(g8
S'O\xdb$\xf1\x7f\x1d3@'
tRp566
ag6
(g8
S'\xa2\x88/\x9f\x0c:R@'
tRp567
ag11
aa(lp568
S'9.97834149529'
p569
ag6
(g8
S'O\xdb$\xf1\x7f\x1d3@'
tRp570
ag6
(g8
S'\x929\\U\r:R@'
tRp571
ag11
aa(lp572
S'10.1708526611'
p573
ag6
(g8
S'O\xdb$\xf1\x7f\x1d3@'
tRp574
ag6
(g8
S'\x82\xea\x88\x0b\x0e:R@'
tRp575
ag11
aa(lp576
S'9.76502990723'
p577
ag6
(g8
S'O\xdb$\xf1\x7f\x1d3@'
tRp578
ag6
(g8
S'=\xaa_\x88J:R@'
tRp579
ag11
aa(lp580
S'9.92623392741'
p581
ag6
(g8
S'\xd3Z3\xb3\x81\x1d3@'
tRp582
ag6
(g8
S'\x82\xea\x88\x0b\x0e:R@'
tRp583
ag11
aa(lp584
S'10.2651412066'
p585
ag6
(g8
S'\xd3Z3\xb3\x81\x1d3@'
tRp586
ag6
(g8
S'r\x9b\xb5\xc1\x0e:R@'
tRp587
ag11
aa(lp588
S'9.9311541389'
p589
ag6
(g8
S'\xd3Z3\xb3\x81\x1d3@'
tRp590
ag6
(g8
S'cL\xe2w\x0f:R@'
tRp591
ag11
aa(lp592
S'10.2143610174'
p593
ag6
(g8
S'\xd3Z3\xb3\x81\x1d3@'
tRp594
ag6
(g8
S'S\xfd\x0e.\x10:R@'
tRp595
ag11
aa(lp596
S'10.5291290283'
p597
ag6
(g8
S'\xd3Z3\xb3\x81\x1d3@'
tRp598
ag6
(g8
S'C\xae;\xe4\x10:R@'
tRp599
ag11
aa(lp600
S'9.85525730678'
p601
ag6
(g8
S'W\xdaAu\x83\x1d3@'
tRp602
ag6
(g8
S'C\xae;\xe4\x10:R@'
tRp603
ag11
aa(lp604
S'10.3994781494'
p605
ag6
(g8
S'W\xdaAu\x83\x1d3@'
tRp606
ag6
(g8
S'3_h\x9a\x11:R@'
tRp607
ag11
aa(lp608
S'9.77660504509'
p609
ag6
(g8
S'W\xdaAu\x83\x1d3@'
tRp610
ag6
(g8
S'#\x10\x95P\x12:R@'
tRp611
ag11
aa(lp612
S'9.95576297536'
p613
ag6
(g8
S'W\xdaAu\x83\x1d3@'
tRp614
ag6
(g8
S'\x13\xc1\xc1\x06\x13:R@'
tRp615
ag11
aa(lp616
S'10.5346832275'
p617
ag6
(g8
S'W\xdaAu\x83\x1d3@'
tRp618
ag6
(g8
S'\x03r\xee\xbc\x13:R@'
tRp619
ag11
aa(lp620
S'8.4871673584'
p621
ag6
(g8
S'W\xdaAu\x83\x1d3@'
tRp622
ag6
(g8
S'=\xaa_\x88J:R@'
tRp623
ag11
aa(lp624
S'10.0411529541'
p625
ag6
(g8
S'\xdaYP7\x85\x1d3@'
tRp626
ag6
(g8
S'\x03r\xee\xbc\x13:R@'
tRp627
ag11
aa(lp628
S'4.99722595215'
p629
ag6
(g8
S'\xdaYP7\x85\x1d3@'
tRp630
ag6
(g8
S'\xf3"\x1bs\x14:R@'
tRp631
ag11
aa(lp632
S'10.0283494429'
p633
ag6
(g8
S'\xdaYP7\x85\x1d3@'
tRp634
ag6
(g8
S'\xe4\xd3G)\x15:R@'
tRp635
ag11
aa(lp636
S'10.2189053622'
p637
ag6
(g8
S'\xdaYP7\x85\x1d3@'
tRp638
ag6
(g8
S'\xd4\x84t\xdf\x15:R@'
tRp639
ag11
aa(lp640
S'10.7124176025'
p641
ag6
(g8
S'\xdaYP7\x85\x1d3@'
tRp642
ag6
(g8
S'=\xaa_\x88J:R@'
tRp643
ag11
aa(lp644
S'10.4845962524'
p645
ag6
(g8
S'^\xd9^\xf9\x86\x1d3@'
tRp646
ag6
(g8
S'\xd4\x84t\xdf\x15:R@'
tRp647
ag11
aa(lp648
S'10.1171731388'
p649
ag6
(g8
S'^\xd9^\xf9\x86\x1d3@'
tRp650
ag6
(g8
S'\xc45\xa1\x95\x16:R@'
tRp651
ag11
aa(lp652
S'10.1497092111'
p653
ag6
(g8
S'^\xd9^\xf9\x86\x1d3@'
tRp654
ag6
(g8
S'\xb4\xe6\xcdK\x17:R@'
tRp655
ag11
aa(lp656
S'10.2940207089'
p657
ag6
(g8
S'^\xd9^\xf9\x86\x1d3@'
tRp658
ag6
(g8
S'\xa4\x97\xfa\x01\x18:R@'
tRp659
ag11
aa(lp660
S'10.2736358643'
p661
ag6
(g8
S'^\xd9^\xf9\x86\x1d3@'
tRp662
ag6
(g8
S'=\xaa_\x88J:R@'
tRp663
ag11
aa(lp664
S'10.1525344849'
p665
ag6
(g8
S'\xe2Xm\xbb\x88\x1d3@'
tRp666
ag6
(g8
S"\x94H'\xb8\x18:R@"
tRp667
ag11
aa(lp668
S'10.3231802548'
p669
ag6
(g8
S'\xe2Xm\xbb\x88\x1d3@'
tRp670
ag6
(g8
S'\x84\xf9Sn\x19:R@'
tRp671
ag11
aa(lp672
S'10.1771652811'
p673
ag6
(g8
S'\xe2Xm\xbb\x88\x1d3@'
tRp674
ag6
(g8
S'u\xaa\x80$\x1a:R@'
tRp675
ag11
aa(lp676
S'11.0341644287'
p677
ag6
(g8
S'\xe2Xm\xbb\x88\x1d3@'
tRp678
ag6
(g8
S'=\xaa_\x88J:R@'
tRp679
ag11
aa(lp680
S'10.0617828369'
p681
ag6
(g8
S'f\xd8{}\x8a\x1d3@'
tRp682
ag6
(g8
S'=\xaa_\x88J:R@'
tRp683
ag11
aa(lp684
S'9.63311767578'
p685
ag6
(g8
S'\xeaW\x8a?\x8c\x1d3@'
tRp686
ag6
(g8
S'=\xaa_\x88J:R@'
tRp687
ag11
aa(lp688
S'10.5977630615'
p689
ag6
(g8
S'n\xd7\x98\x01\x8e\x1d3@'
tRp690
ag6
(g8
S'=\xaa_\x88J:R@'
tRp691
ag11
aa(lp692
S'10.2722473145'
p693
ag6
(g8
S'n\xd7\x98\x01\x8e\x1d3@'
tRp694
ag6
(g8
S'-[\x8c>K:R@'
tRp695
ag11
aa(lp696
S'9.10884094238'
p697
ag6
(g8
S'\xf1V\xa7\xc3\x8f\x1d3@'
tRp698
ag6
(g8
S'-[\x8c>K:R@'
tRp699
ag11
aa(lp700
S'10.1402919603'
p701
ag6
(g8
S'u\xd6\xb5\x85\x91\x1d3@'
tRp702
ag6
(g8
S'\x03r\xee\xbc\x13:R@'
tRp703
ag11
aa(lp704
S'10.4846954346'
p705
ag6
(g8
S'u\xd6\xb5\x85\x91\x1d3@'
tRp706
ag6
(g8
S'\xf3"\x1bs\x14:R@'
tRp707
ag11
aa(lp708
S'10.4771575928'
p709
ag6
(g8
S'u\xd6\xb5\x85\x91\x1d3@'
tRp710
ag6
(g8
S'-[\x8c>K:R@'
tRp711
ag11
aa(lp712
S'10.9060211182'
p713
ag6
(g8
S'\xf9U\xc4G\x93\x1d3@'
tRp714
ag6
(g8
S'\xf3"\x1bs\x14:R@'
tRp715
ag11
aa(lp716
S'9.11207580566'
p717
ag6
(g8
S'\xf9U\xc4G\x93\x1d3@'
tRp718
ag6
(g8
S'\xe4\xd3G)\x15:R@'
tRp719
ag11
aa(lp720
S'10.3277893066'
p721
ag6
(g8
S'\xf9U\xc4G\x93\x1d3@'
tRp722
ag6
(g8
S'\xd4\x84t\xdf\x15:R@'
tRp723
ag11
aa(lp724
S'9.86659240723'
p725
ag6
(g8
S'\xf9U\xc4G\x93\x1d3@'
tRp726
ag6
(g8
S'-[\x8c>K:R@'
tRp727
ag11
aa(lp728
S'9.67737770081'
p729
ag6
(g8
S'}\xd5\xd2\t\x95\x1d3@'
tRp730
ag6
(g8
S'\xd4\x84t\xdf\x15:R@'
tRp731
ag11
aa(lp732
S'9.89668273926'
p733
ag6
(g8
S'}\xd5\xd2\t\x95\x1d3@'
tRp734
ag6
(g8
S'\xc45\xa1\x95\x16:R@'
tRp735
ag11
aa(lp736
S'9.4775604248'
p737
ag6
(g8
S'}\xd5\xd2\t\x95\x1d3@'
tRp738
ag6
(g8
S'\xb4\xe6\xcdK\x17:R@'
tRp739
ag11
aa(lp740
S'10.9214935303'
p741
ag6
(g8
S'}\xd5\xd2\t\x95\x1d3@'
tRp742
ag6
(g8
S'-[\x8c>K:R@'
tRp743
ag11
aa(lp744
S'10.3760191819'
p745
ag6
(g8
S'\x01U\xe1\xcb\x96\x1d3@'
tRp746
ag6
(g8
S'\xb4\xe6\xcdK\x17:R@'
tRp747
ag11
aa(lp748
S'10.060483551'
p749
ag6
(g8
S'\x01U\xe1\xcb\x96\x1d3@'
tRp750
ag6
(g8
S'\xa4\x97\xfa\x01\x18:R@'
tRp751
ag11
aa(lp752
S'10.3625030518'
p753
ag6
(g8
S'\x01U\xe1\xcb\x96\x1d3@'
tRp754
ag6
(g8
S"\x94H'\xb8\x18:R@"
tRp755
ag11
aa(lp756
S'10.3930511475'
p757
ag6
(g8
S'\x01U\xe1\xcb\x96\x1d3@'
tRp758
ag6
(g8
S'-[\x8c>K:R@'
tRp759
ag11
aa(lp760
S'10.2794425271'
p761
ag6
(g8
S'\x85\xd4\xef\x8d\x98\x1d3@'
tRp762
ag6
(g8
S"\x94H'\xb8\x18:R@"
tRp763
ag11
aa(lp764
S'10.1806445454'
p765
ag6
(g8
S'\x85\xd4\xef\x8d\x98\x1d3@'
tRp766
ag6
(g8
S'\x84\xf9Sn\x19:R@'
tRp767
ag11
aa(lp768
S'10.081443964'
p769
ag6
(g8
S'\x85\xd4\xef\x8d\x98\x1d3@'
tRp770
ag6
(g8
S'u\xaa\x80$\x1a:R@'
tRp771
ag11
aa(lp772
S'10.3414764404'
p773
ag6
(g8
S'\x85\xd4\xef\x8d\x98\x1d3@'
tRp774
ag6
(g8
S'-[\x8c>K:R@'
tRp775
ag11
aa(lp776
S'10.2003261021'
p777
ag6
(g8
S'\x08T\xfeO\x9a\x1d3@'
tRp778
ag6
(g8
S'e[\xad\xda\x1a:R@'
tRp779
ag11
aa(lp780
S'10.194926772'
p781
ag6
(g8
S'\x08T\xfeO\x9a\x1d3@'
tRp782
ag6
(g8
S'U\x0c\xda\x90\x1b:R@'
tRp783
ag11
aa(lp784
S'10.1390366988'
p785
ag6
(g8
S'\x08T\xfeO\x9a\x1d3@'
tRp786
ag6
(g8
S'E\xbd\x06G\x1c:R@'
tRp787
ag11
aa(lp788
S'10.1256561279'
p789
ag6
(g8
S'\x08T\xfeO\x9a\x1d3@'
tRp790
ag6
(g8
S'-[\x8c>K:R@'
tRp791
ag11
aa(lp792
S'10.0433283801'
p793
ag6
(g8
S'\x8c\xd3\x0c\x12\x9c\x1d3@'
tRp794
ag6
(g8
S'E\xbd\x06G\x1c:R@'
tRp795
ag11
aa(lp796
S'9.60767745972'
p797
ag6
(g8
S'\x8c\xd3\x0c\x12\x9c\x1d3@'
tRp798
ag6
(g8
S'5n3\xfd\x1c:R@'
tRp799
ag11
aa(lp800
S'9.61546325684'
p801
ag6
(g8
S'\x8c\xd3\x0c\x12\x9c\x1d3@'
tRp802
ag6
(g8
S'-[\x8c>K:R@'
tRp803
ag11
aa(lp804
S'10.7512969971'
p805
ag6
(g8
S'\x10S\x1b\xd4\x9d\x1d3@'
tRp806
ag6
(g8
S'5n3\xfd\x1c:R@'
tRp807
ag11
aa(lp808
S'10.2895050049'
p809
ag6
(g8
S'\x10S\x1b\xd4\x9d\x1d3@'
tRp810
ag6
(g8
S'-[\x8c>K:R@'
tRp811
ag11
aa(lp812
S'9.26634216309'
p813
ag6
(g8
S'\x94\xd2)\x96\x9f\x1d3@'
tRp814
ag6
(g8
S'\x15\xd0\x8ci\x1e:R@'
tRp815
ag11
aa(lp816
S'8.99577331543'
p817
ag6
(g8
S'\x94\xd2)\x96\x9f\x1d3@'
tRp818
ag6
(g8
S'\x05\x81\xb9\x1f\x1f:R@'
tRp819
ag11
aa(lp820
S'10.013381958'
p821
ag6
(g8
S'\x94\xd2)\x96\x9f\x1d3@'
tRp822
ag6
(g8
S'-[\x8c>K:R@'
tRp823
ag11
aa(lp824
S'10.0173988342'
p825
ag6
(g8
S'\x18R8X\xa1\x1d3@'
tRp826
ag6
(g8
S'\x05\x81\xb9\x1f\x1f:R@'
tRp827
ag11
aa(lp828
S'9.55456542969'
p829
ag6
(g8
S'\x18R8X\xa1\x1d3@'
tRp830
ag6
(g8
S'\xf61\xe6\xd5\x1f:R@'
tRp831
ag11
aa(lp832
S'8.29515075684'
p833
ag6
(g8
S'\x18R8X\xa1\x1d3@'
tRp834
ag6
(g8
S'-[\x8c>K:R@'
tRp835
ag11
aa(lp836
S'10.1233891078'
p837
ag6
(g8
S'\x9c\xd1F\x1a\xa3\x1d3@'
tRp838
ag6
(g8
S'\xf61\xe6\xd5\x1f:R@'
tRp839
ag11
aa(lp840
S'10.2391204834'
p841
ag6
(g8
S'\x9c\xd1F\x1a\xa3\x1d3@'
tRp842
ag6
(g8
S'-[\x8c>K:R@'
tRp843
ag11
aa(lp844
S'8.26714172363'
p845
ag6
(g8
S'\x1fQU\xdc\xa4\x1d3@'
tRp846
ag6
(g8
S'\xe6\xe2\x12\x8c :R@'
tRp847
ag11
aa(lp848
S'9.92570495605'
p849
ag6
(g8
S'\x1fQU\xdc\xa4\x1d3@'
tRp850
ag6
(g8
S'-[\x8c>K:R@'
tRp851
ag11
aa(lp852
S'8.51999664307'
p853
ag6
(g8
S'\xa3\xd0c\x9e\xa6\x1d3@'
tRp854
ag6
(g8
S'\xd6\x93?B!:R@'
tRp855
ag11
aa(lp856
S'10.2282104492'
p857
ag6
(g8
S'\xa3\xd0c\x9e\xa6\x1d3@'
tRp858
ag6
(g8
S'\xc6Dl\xf8!:R@'
tRp859
ag11
aa(lp860
S'10.33014134'
p861
ag6
(g8
S"'Pr`\xa8\x1d3@"
tRp862
ag6
(g8
S'\xb6\xf5\x98\xae":R@'
tRp863
ag11
aa(lp864
S'10.7274932861'
p865
ag6
(g8
S'\xab\xcf\x80"\xaa\x1d3@'
tRp866
ag6
(g8
S'\xb6\xf5\x98\xae":R@'
tRp867
ag11
aa(lp868
S'9.90917460124'
p869
ag6
(g8
S'\xab\xcf\x80"\xaa\x1d3@'
tRp870
ag6
(g8
S'\xa6\xa6\xc5d#:R@'
tRp871
ag11
aa(lp872
S'9.18560791016'
p873
ag6
(g8
S'\xab\xcf\x80"\xaa\x1d3@'
tRp874
ag6
(g8
S'-[\x8c>K:R@'
tRp875
ag11
aa(lp876
S'10.4040273031'
p877
ag6
(g8
S'/O\x8f\xe4\xab\x1d3@'
tRp878
ag6
(g8
S'\x96W\xf2\x1a$:R@'
tRp879
ag11
aa(lp880
S'7.44972229004'
p881
ag6
(g8
S'/O\x8f\xe4\xab\x1d3@'
tRp882
ag6
(g8
S'\x86\x08\x1f\xd1$:R@'
tRp883
ag11
aa(lp884
S'10.2196807861'
p885
ag6
(g8
S'/O\x8f\xe4\xab\x1d3@'
tRp886
ag6
(g8
S'\x1e\x0c\xb9\xf4K:R@'
tRp887
ag11
aa(lp888
S'9.9419708252'
p889
ag6
(g8
S'\xb3\xce\x9d\xa6\xad\x1d3@'
tRp890
ag6
(g8
S'\x86\x08\x1f\xd1$:R@'
tRp891
ag11
aa(lp892
S'9.37841796875'
p893
ag6
(g8
S'\xb3\xce\x9d\xa6\xad\x1d3@'
tRp894
ag6
(g8
S'w\xb9K\x87%:R@'
tRp895
ag11
aa(lp896
S'8.06147766113'
p897
ag6
(g8
S'\xb3\xce\x9d\xa6\xad\x1d3@'
tRp898
ag6
(g8
S'\x1e\x0c\xb9\xf4K:R@'
tRp899
ag11
aa(lp900
S'9.35163879395'
p901
ag6
(g8
S'7N\xach\xaf\x1d3@'
tRp902
ag6
(g8
S'w\xb9K\x87%:R@'
tRp903
ag11
aa(lp904
S'10.7634963989'
p905
ag6
(g8
S'7N\xach\xaf\x1d3@'
tRp906
ag6
(g8
S'gjx=&:R@'
tRp907
ag11
aa(lp908
S'7.98578186035'
p909
ag6
(g8
S'\xba\xcd\xba*\xb1\x1d3@'
tRp910
ag6
(g8
S'W\x1b\xa5\xf3&:R@'
tRp911
ag11
aa(lp912
S'10.1954803467'
p913
ag6
(g8
S'\xba\xcd\xba*\xb1\x1d3@'
tRp914
ag6
(g8
S'\x1e\x0c\xb9\xf4K:R@'
tRp915
ag11
aa(lp916
S'9.88662719727'
p917
ag6
(g8
S'>M\xc9\xec\xb2\x1d3@'
tRp918
ag6
(g8
S'W\x1b\xa5\xf3&:R@'
tRp919
ag11
aa(lp920
S'10.8709106445'
p921
ag6
(g8
S'>M\xc9\xec\xb2\x1d3@'
tRp922
ag6
(g8
S"G\xcc\xd1\xa9':R@"
tRp923
ag11
aa(lp924
S'10.4942169189'
p925
ag6
(g8
S'>M\xc9\xec\xb2\x1d3@'
tRp926
ag6
(g8
S'\x1e\x0c\xb9\xf4K:R@'
tRp927
ag11
aa(lp928
S'9.41760907854'
p929
ag6
(g8
S'\xc2\xcc\xd7\xae\xb4\x1d3@'
tRp930
ag6
(g8
S'7}\xfe_(:R@'
tRp931
ag11
aa(lp932
S'9.96974182129'
p933
ag6
(g8
S'\xc2\xcc\xd7\xae\xb4\x1d3@'
tRp934
ag6
(g8
S'\x1e\x0c\xb9\xf4K:R@'
tRp935
ag11
aa(lp936
S'8.36378479004'
p937
ag6
(g8
S'FL\xe6p\xb6\x1d3@'
tRp938
ag6
(g8
S'7}\xfe_(:R@'
tRp939
ag11
aa(lp940
S'10.2984975179'
p941
ag6
(g8
S'FL\xe6p\xb6\x1d3@'
tRp942
ag6
(g8
S"'.+\x16):R@"
tRp943
ag11
aa(lp944
S'9.76145935059'
p945
ag6
(g8
S'FL\xe6p\xb6\x1d3@'
tRp946
ag6
(g8
S'\x1e\x0c\xb9\xf4K:R@'
tRp947
ag11
aa(lp948
S'10.4954071045'
p949
ag6
(g8
S'\xca\xcb\xf42\xb8\x1d3@'
tRp950
ag6
(g8
S'\x17\xdfW\xcc):R@'
tRp951
ag11
aa(lp952
S'9.54444885254'
p953
ag6
(g8
S'\xca\xcb\xf42\xb8\x1d3@'
tRp954
ag6
(g8
S'\x1e\x0c\xb9\xf4K:R@'
tRp955
ag11
aa(lp956
S'9.56289672852'
p957
ag6
(g8
S'NK\x03\xf5\xb9\x1d3@'
tRp958
ag6
(g8
S'\x08\x90\x84\x82*:R@'
tRp959
ag11
aa(lp960
S'10.0096413749'
p961
ag6
(g8
S'\xd1\xca\x11\xb7\xbb\x1d3@'
tRp962
ag6
(g8
S'\xf8@\xb18+:R@'
tRp963
ag11
aa(lp964
S'9.76641845703'
p965
ag6
(g8
S'\xd1\xca\x11\xb7\xbb\x1d3@'
tRp966
ag6
(g8
S'\xe8\xf1\xdd\xee+:R@'
tRp967
ag11
aa(lp968
S'8.87239074707'
p969
ag6
(g8
S'\xd1\xca\x11\xb7\xbb\x1d3@'
tRp970
ag6
(g8
S'\x1e\x0c\xb9\xf4K:R@'
tRp971
ag11
aa(lp972
S'10.8105682373'
p973
ag6
(g8
S'UJ y\xbd\x1d3@'
tRp974
ag6
(g8
S'\xe8\xf1\xdd\xee+:R@'
tRp975
ag11
aa(lp976
S'9.5534942627'
p977
ag6
(g8
S'UJ y\xbd\x1d3@'
tRp978
ag6
(g8
S'\xd8\xa2\n\xa5,:R@'
tRp979
ag11
aa(lp980
S'9.70542144775'
p981
ag6
(g8
S'\xd9\xc9.;\xbf\x1d3@'
tRp982
ag6
(g8
S'\xd8\xa2\n\xa5,:R@'
tRp983
ag11
aa(lp984
S'11.0599517822'
p985
ag6
(g8
S'\xd9\xc9.;\xbf\x1d3@'
tRp986
ag6
(g8
S'\xc8S7[-:R@'
tRp987
ag11
aa(lp988
S'9.3885345459'
p989
ag6
(g8
S'\xd9\xc9.;\xbf\x1d3@'
tRp990
ag6
(g8
S'\x1e\x0c\xb9\xf4K:R@'
tRp991
ag11
aa(lp992
S'8.98416900635'
p993
ag6
(g8
S']I=\xfd\xc0\x1d3@'
tRp994
ag6
(g8
S'\xc8S7[-:R@'
tRp995
ag11
aa(lp996
S'9.97985839844'
p997
ag6
(g8
S']I=\xfd\xc0\x1d3@'
tRp998
ag6
(g8
S'\xb8\x04d\x11.:R@'
tRp999
ag11
aa(lp1000
S'10.8671417236'
p1001
ag6
(g8
S'\xe1\xc8K\xbf\xc2\x1d3@'
tRp1002
ag6
(g8
S'\xb8\x04d\x11.:R@'
tRp1003
ag11
aa(lp1004
S'10.3017044067'
p1005
ag6
(g8
S'\xe1\xc8K\xbf\xc2\x1d3@'
tRp1006
ag6
(g8
S'\xa8\xb5\x90\xc7.:R@'
tRp1007
ag11
aa(lp1008
S'8.2967376709'
p1009
ag6
(g8
S'\xe1\xc8K\xbf\xc2\x1d3@'
tRp1010
ag6
(g8
S'\x1e\x0c\xb9\xf4K:R@'
tRp1011
ag11
aa(lp1012
S'7.8650970459'
p1013
ag6
(g8
S'eHZ\x81\xc4\x1d3@'
tRp1014
ag6
(g8
S'\xa8\xb5\x90\xc7.:R@'
tRp1015
ag11
aa(lp1016
S'9.35401916504'
p1017
ag6
(g8
S'eHZ\x81\xc4\x1d3@'
tRp1018
ag6
(g8
S'\x98f\xbd}/:R@'
tRp1019
ag11
aa(lp1020
S'10.0699554443'
p1021
ag6
(g8
S'eHZ\x81\xc4\x1d3@'
tRp1022
ag6
(g8
S'\x89\x17\xea30:R@'
tRp1023
ag11
aa(lp1024
S'10.5977630615'
p1025
ag6
(g8
S'eHZ\x81\xc4\x1d3@'
tRp1026
ag6
(g8
S'\x1e\x0c\xb9\xf4K:R@'
tRp1027
ag11
aa(lp1028
S'11.0524139404'
p1029
ag6
(g8
S'\xe8\xc7hC\xc6\x1d3@'
tRp1030
ag6
(g8
S'y\xc8\x16\xea0:R@'
tRp1031
ag11
aa(lp1032
S'9.70427376883'
p1033
ag6
(g8
S'lGw\x05\xc8\x1d3@'
tRp1034
ag6
(g8
S'y\xc8\x16\xea0:R@'
tRp1035
ag11
aa(lp1036
S'10.2303924561'
p1037
ag6
(g8
S'lGw\x05\xc8\x1d3@'
tRp1038
ag6
(g8
S'iyC\xa01:R@'
tRp1039
ag11
aa(lp1040
S'8.60102844238'
p1041
ag6
(g8
S'lGw\x05\xc8\x1d3@'
tRp1042
ag6
(g8
S'\x0e\xbd\xe5\xaaL:R@'
tRp1043
ag11
aa(lp1044
S'9.76725158691'
p1045
ag6
(g8
S'\xf0\xc6\x85\xc7\xc9\x1d3@'
tRp1046
ag6
(g8
S'iyC\xa01:R@'
tRp1047
ag11
aa(lp1048
S'10.3690093994'
p1049
ag6
(g8
S'\xf0\xc6\x85\xc7\xc9\x1d3@'
tRp1050
ag6
(g8
S'Y*pV2:R@'
tRp1051
ag11
aa(lp1052
S'10.6136322021'
p1053
ag6
(g8
S'\xf0\xc6\x85\xc7\xc9\x1d3@'
tRp1054
ag6
(g8
S'\x0e\xbd\xe5\xaaL:R@'
tRp1055
ag11
aa(lp1056
S'10.902053833'
p1057
ag6
(g8
S'tF\x94\x89\xcb\x1d3@'
tRp1058
ag6
(g8
S'Y*pV2:R@'
tRp1059
ag11
aa(lp1060
S'10.0683288574'
p1061
ag6
(g8
S'tF\x94\x89\xcb\x1d3@'
tRp1062
ag6
(g8
S'I\xdb\x9c\x0c3:R@'
tRp1063
ag11
aa(lp1064
S'9.03147888184'
p1065
ag6
(g8
S'tF\x94\x89\xcb\x1d3@'
tRp1066
ag6
(g8
S'\x0e\xbd\xe5\xaaL:R@'
tRp1067
ag11
aa(lp1068
S'10.8937225342'
p1069
ag6
(g8
S'\xf8\xc5\xa2K\xcd\x1d3@'
tRp1070
ag6
(g8
S'I\xdb\x9c\x0c3:R@'
tRp1071
ag11
aa(lp1072
S'9.46827697754'
p1073
ag6
(g8
S'\xf8\xc5\xa2K\xcd\x1d3@'
tRp1074
ag6
(g8
S'9\x8c\xc9\xc23:R@'
tRp1075
ag11
aa(lp1076
S'10.3037872314'
p1077
ag6
(g8
S'|E\xb1\r\xcf\x1d3@'
tRp1078
ag6
(g8
S'9\x8c\xc9\xc23:R@'
tRp1079
ag11
aa(lp1080
S'10.7385025024'
p1081
ag6
(g8
S'|E\xb1\r\xcf\x1d3@'
tRp1082
ag6
(g8
S')=\xf6x4:R@'
tRp1083
ag11
aa(lp1084
S'9.41233825684'
p1085
ag6
(g8
S'|E\xb1\r\xcf\x1d3@'
tRp1086
ag6
(g8
S'\x19\xee"/5:R@'
tRp1087
ag11
aa(lp1088
S'10.4460144043'
p1089
ag6
(g8
S'|E\xb1\r\xcf\x1d3@'
tRp1090
ag6
(g8
S'\x0e\xbd\xe5\xaaL:R@'
tRp1091
ag11
aa(lp1092
S'10.4763641357'
p1093
ag6
(g8
S'\xff\xc4\xbf\xcf\xd0\x1d3@'
tRp1094
ag6
(g8
S'\x19\xee"/5:R@'
tRp1095
ag11
aa(lp1096
S'10.1835784912'
p1097
ag6
(g8
S'\xff\xc4\xbf\xcf\xd0\x1d3@'
tRp1098
ag6
(g8
S'\n\x9fO\xe55:R@'
tRp1099
ag11
aa(lp1100
S'7.87937927246'
p1101
ag6
(g8
S'\xff\xc4\xbf\xcf\xd0\x1d3@'
tRp1102
ag6
(g8
S'\x0e\xbd\xe5\xaaL:R@'
tRp1103
ag11
aa(lp1104
S'9.92020743234'
p1105
ag6
(g8
S'\x83D\xce\x91\xd2\x1d3@'
tRp1106
ag6
(g8
S'\n\x9fO\xe55:R@'
tRp1107
ag11
aa(lp1108
S'9.66703796387'
p1109
ag6
(g8
S'\x83D\xce\x91\xd2\x1d3@'
tRp1110
ag6
(g8
S'\xfaO|\x9b6:R@'
tRp1111
ag11
aa(lp1112
S'9.4723236084'
p1113
ag6
(g8
S'\x07\xc4\xdcS\xd4\x1d3@'
tRp1114
ag6
(g8
S'\xfaO|\x9b6:R@'
tRp1115
ag11
aa(lp1116
S'10.4739837646'
p1117
ag6
(g8
S'\x07\xc4\xdcS\xd4\x1d3@'
tRp1118
ag6
(g8
S'\xea\x00\xa9Q7:R@'
tRp1119
ag11
aa(lp1120
S'9.22428894043'
p1121
ag6
(g8
S'\x07\xc4\xdcS\xd4\x1d3@'
tRp1122
ag6
(g8
S'\x0e\xbd\xe5\xaaL:R@'
tRp1123
ag11
aa(lp1124
S'10.6929779053'
p1125
ag6
(g8
S'\x8bC\xeb\x15\xd6\x1d3@'
tRp1126
ag6
(g8
S'\xea\x00\xa9Q7:R@'
tRp1127
ag11
aa(lp1128
S'9.55992126465'
p1129
ag6
(g8
S'\x8bC\xeb\x15\xd6\x1d3@'
tRp1130
ag6
(g8
S'\xda\xb1\xd5\x078:R@'
tRp1131
ag11
aa(lp1132
S'9.51112365723'
p1133
ag6
(g8
S'\x8bC\xeb\x15\xd6\x1d3@'
tRp1134
ag6
(g8
S'\x0e\xbd\xe5\xaaL:R@'
tRp1135
ag11
aa(lp1136
S'9.55912780762'
p1137
ag6
(g8
S'\x0f\xc3\xf9\xd7\xd7\x1d3@'
tRp1138
ag6
(g8
S'\xda\xb1\xd5\x078:R@'
tRp1139
ag11
aa(lp1140
S'10.4816349574'
p1141
ag6
(g8
S'\x0f\xc3\xf9\xd7\xd7\x1d3@'
tRp1142
ag6
(g8
S'\xcab\x02\xbe8:R@'
tRp1143
ag11
aa(lp1144
S'10.3676605225'
p1145
ag6
(g8
S'\x0f\xc3\xf9\xd7\xd7\x1d3@'
tRp1146
ag6
(g8
S'\x0e\xbd\xe5\xaaL:R@'
tRp1147
ag11
aa(lp1148
S'10.5799102783'
p1149
ag6
(g8
S'\x93B\x08\x9a\xd9\x1d3@'
tRp1150
ag6
(g8
S'\xcab\x02\xbe8:R@'
tRp1151
ag11
aa(lp1152
S'10.4577674866'
p1153
ag6
(g8
S'\x93B\x08\x9a\xd9\x1d3@'
tRp1154
ag6
(g8
S'\xba\x13/t9:R@'
tRp1155
ag11
aa(lp1156
S'10.3978118896'
p1157
ag6
(g8
S'\x93B\x08\x9a\xd9\x1d3@'
tRp1158
ag6
(g8
S'\xaa\xc4[*::R@'
tRp1159
ag11
aa(lp1160
S'10.4874725342'
p1161
ag6
(g8
S'\x93B\x08\x9a\xd9\x1d3@'
tRp1162
ag6
(g8
S'\x0e\xbd\xe5\xaaL:R@'
tRp1163
ag11
aa(lp1164
S'9.97716631208'
p1165
ag6
(g8
S'\x17\xc2\x16\\\xdb\x1d3@'
tRp1166
ag6
(g8
S'\xaa\xc4[*::R@'
tRp1167
ag11
aa(lp1168
S'9.9217376709'
p1169
ag6
(g8
S'\x17\xc2\x16\\\xdb\x1d3@'
tRp1170
ag6
(g8
S'\x9au\x88\xe0::R@'
tRp1171
ag11
aa(lp1172
S'9.27983093262'
p1173
ag6
(g8
S'\x17\xc2\x16\\\xdb\x1d3@'
tRp1174
ag6
(g8
S'\x0e\xbd\xe5\xaaL:R@'
tRp1175
ag11
aa(lp1176
S'10.5231214251'
p1177
ag6
(g8
S'\x9aA%\x1e\xdd\x1d3@'
tRp1178
ag6
(g8
S'\x9au\x88\xe0::R@'
tRp1179
ag11
aa(lp1180
S'8.62959289551'
p1181
ag6
(g8
S'\x9aA%\x1e\xdd\x1d3@'
tRp1182
ag6
(g8
S'\x8b&\xb5\x96;:R@'
tRp1183
ag11
aa(lp1184
S'10.6556854248'
p1185
ag6
(g8
S'\x9aA%\x1e\xdd\x1d3@'
tRp1186
ag6
(g8
S'\x0e\xbd\xe5\xaaL:R@'
tRp1187
ag11
aa(lp1188
S'7.23096618652'
p1189
ag6
(g8
S'\x1e\xc13\xe0\xde\x1d3@'
tRp1190
ag6
(g8
S'{\xd7\xe1L<:R@'
tRp1191
ag11
aa(lp1192
S'8.96661376953'
p1193
ag6
(g8
S'\x1e\xc13\xe0\xde\x1d3@'
tRp1194
ag6
(g8
S'\x0e\xbd\xe5\xaaL:R@'
tRp1195
ag11
aa(lp1196
S'10.3045806885'
p1197
ag6
(g8
S'\xa2@B\xa2\xe0\x1d3@'
tRp1198
ag6
(g8
S'k\x88\x0e\x03=:R@'
tRp1199
ag11
aa(lp1200
S'10.6148223877'
p1201
ag6
(g8
S'\xa2@B\xa2\xe0\x1d3@'
tRp1202
ag6
(g8
S'\x0e\xbd\xe5\xaaL:R@'
tRp1203
ag11
aa(lp1204
S'9.4369354248'
p1205
ag6
(g8
S'&\xc0Pd\xe2\x1d3@'
tRp1206
ag6
(g8
S'k\x88\x0e\x03=:R@'
tRp1207
ag11
aa(lp1208
S'9.9649244036'
p1209
ag6
(g8
S'&\xc0Pd\xe2\x1d3@'
tRp1210
ag6
(g8
S'[9;\xb9=:R@'
tRp1211
ag11
aa(lp1212
S'9.61109924316'
p1213
ag6
(g8
S'\xaa?_&\xe4\x1d3@'
tRp1214
ag6
(g8
S'[9;\xb9=:R@'
tRp1215
ag11
aa(lp1216
S'11.0193862915'
p1217
ag6
(g8
S'\xaa?_&\xe4\x1d3@'
tRp1218
ag6
(g8
S'K\xeago>:R@'
tRp1219
ag11
aa(lp1220
S'8.79344177246'
p1221
ag6
(g8
S'\xaa?_&\xe4\x1d3@'
tRp1222
ag6
(g8
S';\x9b\x94%?:R@'
tRp1223
ag11
aa(lp1224
S'10.9345855713'
p1225
ag6
(g8
S'\xaa?_&\xe4\x1d3@'
tRp1226
ag6
(g8
S'\x0e\xbd\xe5\xaaL:R@'
tRp1227
ag11
aa(lp1228
S'9.77568490165'
p1229
ag6
(g8
S'.\xbfm\xe8\xe5\x1d3@'
tRp1230
ag6
(g8
S';\x9b\x94%?:R@'
tRp1231
ag11
aa(lp1232
S'10.2186889648'
p1233
ag6
(g8
S'.\xbfm\xe8\xe5\x1d3@'
tRp1234
ag6
(g8
S'+L\xc1\xdb?:R@'
tRp1235
ag11
aa(lp1236
S'9.40599060059'
p1237
ag6
(g8
S'.\xbfm\xe8\xe5\x1d3@'
tRp1238
ag6
(g8
S'\xfem\x12aM:R@'
tRp1239
ag11
aa(lp1240
S'11.0367715018'
p1241
ag6
(g8
S'\xb1>|\xaa\xe7\x1d3@'
tRp1242
ag6
(g8
S'+L\xc1\xdb?:R@'
tRp1243
ag11
aa(lp1244
S'10.2899017334'
p1245
ag6
(g8
S'\xb1>|\xaa\xe7\x1d3@'
tRp1246
ag6
(g8
S'\x1c\xfd\xed\x91@:R@'
tRp1247
ag11
aa(lp1248
S'9.98362731934'
p1249
ag6
(g8
S'\xb1>|\xaa\xe7\x1d3@'
tRp1250
ag6
(g8
S'\xfem\x12aM:R@'
tRp1251
ag11
aa(lp1252
S'9.27237243652'
p1253
ag6
(g8
S'5\xbe\x8al\xe9\x1d3@'
tRp1254
ag6
(g8
S'\x1c\xfd\xed\x91@:R@'
tRp1255
ag11
aa(lp1256
S'9.66989440918'
p1257
ag6
(g8
S'5\xbe\x8al\xe9\x1d3@'
tRp1258
ag6
(g8
S'\x0c\xae\x1aHA:R@'
tRp1259
ag11
aa(lp1260
S'11.0210723877'
p1261
ag6
(g8
S'5\xbe\x8al\xe9\x1d3@'
tRp1262
ag6
(g8
S'\xfem\x12aM:R@'
tRp1263
ag11
aa(lp1264
S'10.5759429932'
p1265
ag6
(g8
S'\xb9=\x99.\xeb\x1d3@'
tRp1266
ag6
(g8
S'\x0c\xae\x1aHA:R@'
tRp1267
ag11
aa(lp1268
S'10.6568756104'
p1269
ag6
(g8
S'\xb9=\x99.\xeb\x1d3@'
tRp1270
ag6
(g8
S'\xfc^G\xfeA:R@'
tRp1271
ag11
aa(lp1272
S'8.41139221191'
p1273
ag6
(g8
S'\xb9=\x99.\xeb\x1d3@'
tRp1274
ag6
(g8
S'\xfem\x12aM:R@'
tRp1275
ag11
aa(lp1276
S'10.7306671143'
p1277
ag6
(g8
S'=\xbd\xa7\xf0\xec\x1d3@'
tRp1278
ag6
(g8
S'\xfc^G\xfeA:R@'
tRp1279
ag11
aa(lp1280
S'9.99110848563'
p1281
ag6
(g8
S'=\xbd\xa7\xf0\xec\x1d3@'
tRp1282
ag6
(g8
S'\xec\x0ft\xb4B:R@'
tRp1283
ag11
aa(lp1284
S'10.1392669678'
p1285
ag6
(g8
S'=\xbd\xa7\xf0\xec\x1d3@'
tRp1286
ag6
(g8
S'=\xaa_\x88J:R@'
tRp1287
ag11
aa(lp1288
S'10.8417510986'
p1289
ag6
(g8
S'=\xbd\xa7\xf0\xec\x1d3@'
tRp1290
ag6
(g8
S'\xfem\x12aM:R@'
tRp1291
ag11
aa(lp1292
S'9.9598236084'
p1293
ag6
(g8
S'\xc1<\xb6\xb2\xee\x1d3@'
tRp1294
ag6
(g8
S'\xec\x0ft\xb4B:R@'
tRp1295
ag11
aa(lp1296
S'9.70705795288'
p1297
ag6
(g8
S'\xc1<\xb6\xb2\xee\x1d3@'
tRp1298
ag6
(g8
S'\xdc\xc0\xa0jC:R@'
tRp1299
ag11
aa(lp1300
S'8.2840423584'
p1301
ag6
(g8
S'\xc1<\xb6\xb2\xee\x1d3@'
tRp1302
ag6
(g8
S'\xccq\xcd D:R@'
tRp1303
ag11
aa(lp1304
S'10.3443076394'
p1305
ag6
(g8
S'\xc1<\xb6\xb2\xee\x1d3@'
tRp1306
ag6
(g8
S']H\x06\x1cI:R@'
tRp1307
ag11
aa(lp1308
S'10.2288668918'
p1309
ag6
(g8
S'\xc1<\xb6\xb2\xee\x1d3@'
tRp1310
ag6
(g8
S'M\xf92\xd2I:R@'
tRp1311
ag11
aa(lp1312
S'9.88789176941'
p1313
ag6
(g8
S'\xc1<\xb6\xb2\xee\x1d3@'
tRp1314
ag6
(g8
S'=\xaa_\x88J:R@'
tRp1315
ag11
aa(lp1316
S'9.66767633612'
p1317
ag6
(g8
S'\xc1<\xb6\xb2\xee\x1d3@'
tRp1318
ag6
(g8
S'-[\x8c>K:R@'
tRp1319
ag11
aa(lp1320
S'8.88032531738'
p1321
ag6
(g8
S'\xc1<\xb6\xb2\xee\x1d3@'
tRp1322
ag6
(g8
S'\xfem\x12aM:R@'
tRp1323
ag11
aa(lp1324
S'10.9021105085'
p1325
ag6
(g8
S'E\xbc\xc4t\xf0\x1d3@'
tRp1326
ag6
(g8
S'\xccq\xcd D:R@'
tRp1327
ag11
aa(lp1328
S'9.1421661377'
p1329
ag6
(g8
S'E\xbc\xc4t\xf0\x1d3@'
tRp1330
ag6
(g8
S'\xbc"\xfa\xd6D:R@'
tRp1331
ag11
aa(lp1332
S'10.2094465948'
p1333
ag6
(g8
S'E\xbc\xc4t\xf0\x1d3@'
tRp1334
ag6
(g8
S'm\x97\xd9eH:R@'
tRp1335
ag11
aa(lp1336
S'10.0687487714'
p1337
ag6
(g8
S'E\xbc\xc4t\xf0\x1d3@'
tRp1338
ag6
(g8
S']H\x06\x1cI:R@'
tRp1339
ag11
aa(lp1340
S'9.99633169992'
p1341
ag6
(g8
S'E\xbc\xc4t\xf0\x1d3@'
tRp1342
ag6
(g8
S'-[\x8c>K:R@'
tRp1343
ag11
aa(lp1344
S'10.071105957'
p1345
ag6
(g8
S'E\xbc\xc4t\xf0\x1d3@'
tRp1346
ag6
(g8
S'\xfem\x12aM:R@'
tRp1347
ag11
aa(lp1348
S'10.0619082731'
p1349
ag6
(g8
S'\xc8;\xd36\xf2\x1d3@'
tRp1350
ag6
(g8
S'\xbc"\xfa\xd6D:R@'
tRp1351
ag11
aa(lp1352
S'10.1895133354'
p1353
ag6
(g8
S'\xc8;\xd36\xf2\x1d3@'
tRp1354
ag6
(g8
S'\xac\xd3&\x8dE:R@'
tRp1355
ag11
aa(lp1356
S'10.1502609745'
p1357
ag6
(g8
S'\xc8;\xd36\xf2\x1d3@'
tRp1358
ag6
(g8
S'\x9d\x84SCF:R@'
tRp1359
ag11
aa(lp1360
S'10.365231473'
p1361
ag6
(g8
S'\xc8;\xd36\xf2\x1d3@'
tRp1362
ag6
(g8
S'\x8d5\x80\xf9F:R@'
tRp1363
ag11
aa(lp1364
S'9.77129255022'
p1365
ag6
(g8
S'\xc8;\xd36\xf2\x1d3@'
tRp1366
ag6
(g8
S'}\xe6\xac\xafG:R@'
tRp1367
ag11
aa(lp1368
S'9.98492570357'
p1369
ag6
(g8
S'\xc8;\xd36\xf2\x1d3@'
tRp1370
ag6
(g8
S'm\x97\xd9eH:R@'
tRp1371
ag11
aa(lp1372
S'10.0268415563'
p1373
ag6
(g8
S'\xc8;\xd36\xf2\x1d3@'
tRp1374
ag6
(g8
S'-[\x8c>K:R@'
tRp1375
ag11
aa(lp1376
S'7.84466552734'
p1377
ag6
(g8
S'\xc8;\xd36\xf2\x1d3@'
tRp1378
ag6
(g8
S'\x1e\x0c\xb9\xf4K:R@'
tRp1379
ag11
aa(lp1380
S'10.9560089111'
p1381
ag6
(g8
S'\xc8;\xd36\xf2\x1d3@'
tRp1382
ag6
(g8
S'\xfem\x12aM:R@'
tRp1383
ag11
aa(lp1384
S'9.61060675259'
p1385
ag6
(g8
S'L\xbb\xe1\xf8\xf3\x1d3@'
tRp1386
ag6
(g8
S'\x1e\x0c\xb9\xf4K:R@'
tRp1387
ag11
aa(lp1388
S'9.44332412194'
p1389
ag6
(g8
S'\xd0:\xf0\xba\xf5\x1d3@'
tRp1390
ag6
(g8
S'\x1e\x0c\xb9\xf4K:R@'
tRp1391
ag11
aa(lp1392
S'10.3672637939'
p1393
ag6
(g8
S'\xd0:\xf0\xba\xf5\x1d3@'
tRp1394
ag6
(g8
S'\xfem\x12aM:R@'
tRp1395
ag11
aa(lp1396
S'9.86587333679'
p1397
ag6
(g8
S'T\xba\xfe|\xf7\x1d3@'
tRp1398
ag6
(g8
S'\x1e\x0c\xb9\xf4K:R@'
tRp1399
ag11
aa(lp1400
S'9.78809683664'
p1401
ag6
(g8
S'T\xba\xfe|\xf7\x1d3@'
tRp1402
ag6
(g8
S'\x0e\xbd\xe5\xaaL:R@'
tRp1403
ag11
aa(lp1404
S'10.9694976807'
p1405
ag6
(g8
S'T\xba\xfe|\xf7\x1d3@'
tRp1406
ag6
(g8
S'\xfem\x12aM:R@'
tRp1407
ag11
aa(lp1408
S'9.82919048441'
p1409
ag6
(g8
S'\xd89\r?\xf9\x1d3@'
tRp1410
ag6
(g8
S'\x0e\xbd\xe5\xaaL:R@'
tRp1411
ag11
aa(lp1412
S'9.21556091309'
p1413
ag6
(g8
S'\xd89\r?\xf9\x1d3@'
tRp1414
ag6
(g8
S'\xfem\x12aM:R@'
tRp1415
ag11
aa(lp1416
S'9.58446371144'
p1417
ag6
(g8
S'\\\xb9\x1b\x01\xfb\x1d3@'
tRp1418
ag6
(g8
S'\x0e\xbd\xe5\xaaL:R@'
tRp1419
ag11
aa(lp1420
S'9.13859558105'
p1421
ag6
(g8
S'\\\xb9\x1b\x01\xfb\x1d3@'
tRp1422
ag6
(g8
S'\xfem\x12aM:R@'
tRp1423
ag11
aa(lp1424
S'10.0678329468'
p1425
ag6
(g8
S'\xdf8*\xc3\xfc\x1d3@'
tRp1426
ag6
(g8
S'\x0e\xbd\xe5\xaaL:R@'
tRp1427
ag11
aa(lp1428
S'9.73468017578'
p1429
ag6
(g8
S'\xdf8*\xc3\xfc\x1d3@'
tRp1430
ag6
(g8
S'\xfem\x12aM:R@'
tRp1431
ag11
aa(lp1432
S'10.3161725998'
p1433
ag6
(g8
S'c\xb88\x85\xfe\x1d3@'
tRp1434
ag6
(g8
S'\xfem\x12aM:R@'
tRp1435
ag11
aa(lp1436
S'9.61373996735'
p1437
ag6
(g8
S'\xe77GG\x00\x1e3@'
tRp1438
ag6
(g8
S'\xfem\x12aM:R@'
tRp1439
ag11
aasS'RouteCoordinates'
p1440
(lp1441
sS'markers'
p1442
(lp1443
(lp1444
S'11.6032318115'
p1445
ag6
(g8
S'og\xba\xfdS\x1d3@'
tRp1446
ag6
(g8
S'\xe8\xf1\xdd\xee+:R@'
tRp1447
aS'red'
p1448
aa(lp1449
S'15.1561737061'
p1450
ag6
(g8
S'og\xba\xfdS\x1d3@'
tRp1451
ag6
(g8
S'\xd8\xa2\n\xa5,:R@'
tRp1452
ag1448
aa(lp1453
S'13.1659454346'
p1454
ag6
(g8
S'og\xba\xfdS\x1d3@'
tRp1455
ag6
(g8
S'y\xc8\x16\xea0:R@'
tRp1456
ag1448
aa(lp1457
S'11.2618865967'
p1458
ag6
(g8
S'wf\xd7\x81W\x1d3@'
tRp1459
ag6
(g8
S'5n3\xfd\x1c:R@'
tRp1460
ag1448
aa(lp1461
S'11.1416778564'
p1462
ag6
(g8
S'~e\xf4\x05[\x1d3@'
tRp1463
ag6
(g8
S'M\xf92\xd2I:R@'
tRp1464
ag1448
aa(lp1465
S'11.3955841064'
p1466
ag6
(g8
S'(\xe0\x93\\n\x1d3@'
tRp1467
ag6
(g8
S'M\xf92\xd2I:R@'
tRp1468
ag1448
aa(lp1469
S'11.2049560547'
p1470
ag6
(g8
S'\xac_\xa2\x1ep\x1d3@'
tRp1471
ag6
(g8
S'\x929\\U\r:R@'
tRp1472
ag1448
aa(lp1473
S'11.7748565674'
p1474
ag6
(g8
S'8\xde\xcddu\x1d3@'
tRp1475
ag6
(g8
S'\xe2\xc4|\xc6\t:R@'
tRp1476
ag1448
aa(lp1477
S'15.7998657227'
p1478
ag6
(g8
S'\xc3\\\xf9\xaaz\x1d3@'
tRp1479
ag6
(g8
S'!\x01\xca\xed\x06:R@'
tRp1480
ag1448
aa(lp1481
S'12.337020874'
p1482
ag6
(g8
S'G\xdc\x07m|\x1d3@'
tRp1483
ag6
(g8
S'=\xaa_\x88J:R@'
tRp1484
ag1448
aa(lp1485
S'11.8593597412'
p1486
ag6
(g8
S'\xd3Z3\xb3\x81\x1d3@'
tRp1487
ag6
(g8
S'=\xaa_\x88J:R@'
tRp1488
ag1448
aa(lp1489
S'11.4416046143'
p1490
ag6
(g8
S'^\xd9^\xf9\x86\x1d3@'
tRp1491
ag6
(g8
S"\x94H'\xb8\x18:R@"
tRp1492
ag1448
aa(lp1493
S'12.1676177979'
p1494
ag6
(g8
S'\x85\xd4\xef\x8d\x98\x1d3@'
tRp1495
ag6
(g8
S'e[\xad\xda\x1a:R@'
tRp1496
ag1448
aa(lp1497
S'11.2318939209'
p1498
ag6
(g8
S'\x10S\x1b\xd4\x9d\x1d3@'
tRp1499
ag6
(g8
S'%\x1f`\xb3\x1d:R@'
tRp1500
ag1448
aa(lp1501
S'11.1854171753'
p1502
ag6
(g8
S'\x9c\xd1F\x1a\xa3\x1d3@'
tRp1503
ag6
(g8
S'\xe6\xe2\x12\x8c :R@'
tRp1504
ag1448
aa(lp1505
S'11.7760467529'
p1506
ag6
(g8
S'\x1fQU\xdc\xa4\x1d3@'
tRp1507
ag6
(g8
S'\xd6\x93?B!:R@'
tRp1508
ag1448
aa(lp1509
S'11.7339935303'
p1510
ag6
(g8
S'\xa3\xd0c\x9e\xa6\x1d3@'
tRp1511
ag6
(g8
S'-[\x8c>K:R@'
tRp1512
ag1448
aa(lp1513
S'11.193649292'
p1514
ag6
(g8
S"'Pr`\xa8\x1d3@"
tRp1515
ag6
(g8
S'\xc6Dl\xf8!:R@'
tRp1516
ag1448
aa(lp1517
S'11.1976165771'
p1518
ag6
(g8
S"'Pr`\xa8\x1d3@"
tRp1519
ag6
(g8
S'-[\x8c>K:R@'
tRp1520
ag1448
aa(lp1521
S'11.2476043701'
p1522
ag6
(g8
S'\xab\xcf\x80"\xaa\x1d3@'
tRp1523
ag6
(g8
S'\x1e\x0c\xb9\xf4K:R@'
tRp1524
ag1448
aa(lp1525
S'11.3785247803'
p1526
ag6
(g8
S'7N\xach\xaf\x1d3@'
tRp1527
ag6
(g8
S'\x1e\x0c\xb9\xf4K:R@'
tRp1528
ag1448
aa(lp1529
S'11.1395355225'
p1530
ag6
(g8
S'\xba\xcd\xba*\xb1\x1d3@'
tRp1531
ag6
(g8
S'gjx=&:R@'
tRp1532
ag1448
aa(lp1533
S'11.1650848389'
p1534
ag6
(g8
S'\xc2\xcc\xd7\xae\xb4\x1d3@'
tRp1535
ag6
(g8
S"G\xcc\xd1\xa9':R@"
tRp1536
ag1448
aa(lp1537
S'11.4273223877'
p1538
ag6
(g8
S'\xca\xcb\xf42\xb8\x1d3@'
tRp1539
ag6
(g8
S'\x08\x90\x84\x82*:R@'
tRp1540
ag1448
aa(lp1541
S'11.7492675781'
p1542
ag6
(g8
S'NK\x03\xf5\xb9\x1d3@'
tRp1543
ag6
(g8
S'\xf8@\xb18+:R@'
tRp1544
ag1448
aa(lp1545
S'11.5189666748'
p1546
ag6
(g8
S'NK\x03\xf5\xb9\x1d3@'
tRp1547
ag6
(g8
S'\x1e\x0c\xb9\xf4K:R@'
tRp1548
ag1448
aa(lp1549
S'11.770690918'
p1550
ag6
(g8
S'UJ y\xbd\x1d3@'
tRp1551
ag6
(g8
S'\x1e\x0c\xb9\xf4K:R@'
tRp1552
ag1448
aa(lp1553
S'11.4138336182'
p1554
ag6
(g8
S']I=\xfd\xc0\x1d3@'
tRp1555
ag6
(g8
S'\x1e\x0c\xb9\xf4K:R@'
tRp1556
ag1448
aa(lp1557
S'11.3265533447'
p1558
ag6
(g8
S'\xe8\xc7hC\xc6\x1d3@'
tRp1559
ag6
(g8
S'\x89\x17\xea30:R@'
tRp1560
ag1448
aa(lp1561
S'11.8486480713'
p1562
ag6
(g8
S'\xe8\xc7hC\xc6\x1d3@'
tRp1563
ag6
(g8
S'\x1e\x0c\xb9\xf4K:R@'
tRp1564
ag1448
aa(lp1565
S'11.3694000244'
p1566
ag6
(g8
S'\xf8\xc5\xa2K\xcd\x1d3@'
tRp1567
ag6
(g8
S'\x0e\xbd\xe5\xaaL:R@'
tRp1568
ag1448
aa(lp1569
S'12.1803131104'
p1570
ag6
(g8
S'\x83D\xce\x91\xd2\x1d3@'
tRp1571
ag6
(g8
S'\x0e\xbd\xe5\xaaL:R@'
tRp1572
ag1448
aa(lp1573
S'12.1764251709'
p1574
ag6
(g8
S'\x1e\xc13\xe0\xde\x1d3@'
tRp1575
ag6
(g8
S'\x8b&\xb5\x96;:R@'
tRp1576
ag1448
aa(lp1577
S'11.8296051025'
p1578
ag6
(g8
S'\xa2@B\xa2\xe0\x1d3@'
tRp1579
ag6
(g8
S'{\xd7\xe1L<:R@'
tRp1580
ag1448
aa(lp1581
S'11.1285858154'
p1582
ag6
(g8
S'&\xc0Pd\xe2\x1d3@'
tRp1583
ag6
(g8
S'\x0e\xbd\xe5\xaaL:R@'
tRp1584
ag1448
aa(lp1585
S'11.6106109619'
p1586
ag6
(g8
S'\xaa?_&\xe4\x1d3@'
tRp1587
ag6
(g8
S'\xfem\x12aM:R@'
tRp1588
ag1448
aa(lp1589
S'11.4066925049'
p1590
ag6
(g8
S'L\xbb\xe1\xf8\xf3\x1d3@'
tRp1591
ag6
(g8
S'\xfem\x12aM:R@'
tRp1592
ag1448
aas.