(dp1
S'markers_green'
p2
(lp3
sS'RouteCoordinates'
p4
(lp5
sS'markers'
p6
(lp7
(lp8
S'1970-01-01 00:00:00'
p9
aF19.115129062748817
aF72.906366249647846
aS'red'
p10
aa(lp11
S'1970-01-01 00:00:00'
p12
aF19.115128153962878
aF72.906354413827842
ag10
aa(lp13
S'1970-01-01 00:00:00'
p14
aF19.115119199999999
aF72.9062378
ag10
aa(lp15
S'1970-01-01 00:00:00'
p16
aF19.115110100000003
aF72.905842199999995
ag10
aa(lp17
S'1970-01-01 00:00:00'
p18
aF19.115110100000003
aF72.905842199999995
ag10
aa(lp19
S'1970-01-01 00:00:00'
p20
aF19.115370899999998
aF72.905847699999995
ag10
aa(lp21
S'1970-01-01 00:00:00'
p22
aF19.11577658947283
aF72.905875476195533
ag10
aa(lp23
S'1970-01-01 00:00:00'
p24
aF19.115817467286487
aF72.905878274969709
ag10
aa(lp25
S'1970-01-01 00:00:00'
p26
aF19.115838606208786
aF72.905879722285178
ag10
aa(lp27
S'1970-01-01 00:00:00'
p28
aF19.115993100000004
aF72.905890299999996
ag10
aa(lp29
S'1970-01-01 00:00:00'
p30
aF19.115993100000004
aF72.905890299999996
ag10
aa(lp31
S'1970-01-01 00:00:00'
p32
aF19.115993607541867
aF72.905780745172521
ag10
aa(lp33
S'1970-01-01 00:00:00'
p34
aF19.115993932034353
aF72.90571069491007
ag10
aa(lp35
S'1970-01-01 00:00:00'
p36
aF19.115994131132592
aF72.905667711473001
ag10
aa(lp37
S'1970-01-01 00:00:00'
p38
aF19.115994460069484
aF72.90559669236923
ag10
aa(lp39
S'1970-01-01 00:00:00'
p40
aF19.115994687000061
aF72.905547693506875
ag10
aa(lp41
S'1970-01-01 00:00:00'
p42
aF19.115994687000061
aF72.905547693506875
ag10
aa(lp43
S'1970-01-01 00:00:00'
p44
aF19.115994687000061
aF72.905547693506875
ag10
aa(lp45
S'1970-01-01 00:00:00'
p46
aF19.1159949
aF72.905501700000002
ag10
aa(lp47
S'1970-01-01 00:00:00'
p48
aF19.1160031
aF72.905346299999991
ag10
aa(lp49
S'1970-01-01 00:00:00'
p50
aF19.115996700000004
aF72.90525989999999
ag10
aa(lp51
S'1970-01-01 00:00:00'
p52
aF19.115985999999999
aF72.905228199999996
ag10
aa(lp53
S'1970-01-01 00:00:00'
p54
aF19.115963099999998
aF72.905192700000001
ag10
aa(lp55
S'1970-01-01 00:00:00'
p56
aF19.115963099999998
aF72.905192700000001
ag10
aa(lp57
S'1970-01-01 00:00:00'
p58
aF19.115949399999995
aF72.905173599999998
ag10
aa(lp59
S'1970-01-01 00:00:00'
p60
aF19.115933999999999
aF72.905165999999994
ag10
aa(lp61
S'1970-01-01 00:00:00'
p62
aF19.115054199999999
aF72.905140000000003
ag10
aa(lp63
S'1970-01-01 00:00:00'
p64
aF19.115054199999999
aF72.905140000000003
ag10
aa(lp65
S'1970-01-01 00:00:00'
p66
aF19.115042668241493
aF72.904890594709144
ag10
aa(lp67
S'1970-01-01 00:00:00'
p68
aF19.115042386700168
aF72.904884505712062
ag10
aa(lp69
S'1970-01-01 00:00:00'
p70
aF19.115042241151414
aF72.904881357877741
ag10
aa(lp71
S'1970-01-01 00:00:00'
p72
aF19.115042241151414
aF72.904881357877741
ag10
aa(lp73
S'1970-01-01 00:00:00'
p74
aF19.115042241151414
aF72.904881357877741
ag10
aa(lp75
S'1970-01-01 00:00:00'
p76
aF19.1150263
aF72.9045366
ag10
aa(lp77
S'1970-01-01 00:00:00'
p78
aF19.115020699999995
aF72.904501699999997
ag10
aa(lp79
S'1970-01-01 00:00:00'
p80
aF19.1150068
aF72.904468800000018
ag10
aa(lp81
S'1970-01-01 00:00:00'
p82
aF19.114929499999999
aF72.904350100000002
ag10
aa(lp83
S'1970-01-01 00:00:00'
p84
aF19.1149089
aF72.904310600000002
ag10
aa(lp85
S'1970-01-01 00:00:00'
p86
aF19.1148992
aF72.904282899999998
ag10
aa(lp87
S'1970-01-01 00:00:00'
p88
aF19.1148959
aF72.9042599
ag10
aa(lp89
S'1970-01-01 00:00:00'
p90
aF19.114895000000004
aF72.903894499999993
ag10
aa(lp91
S'1970-01-01 00:00:00'
p92
aF19.114895000000004
aF72.903894499999993
ag10
aa(lp93
S'1970-01-01 00:00:00'
p94
aF19.114701149358353
aF72.903880387389535
ag10
aa(lp95
S'1970-01-01 00:00:00'
p96
aF19.11467192274938
aF72.903878259652487
ag10
aa(lp97
S'1970-01-01 00:00:00'
p98
aF19.114611065866491
aF72.903873829190744
ag10
aa(lp99
S'1970-01-01 00:00:00'
p100
aF19.114551600000002
aF72.903869499999999
ag10
aa(lp101
S'1970-01-01 00:00:00'
p102
aF19.11449605232016
aF72.903862798071259
ag10
aa(lp103
S'1970-01-01 00:00:00'
p104
aF19.114345469281261
aF72.903844629976149
ag10
aa(lp105
S'1970-01-01 00:00:00'
p106
aF19.114324499999999
aF72.903842099999991
ag10
aa(lp107
S'1970-01-01 00:00:00'
p108
aF19.114179854137095
aF72.903818358163207
ag10
aa(lp109
S'1970-01-01 00:00:00'
p110
aF19.114035583456232
aF72.903794677949818
ag10
aa(lp111
S'1970-01-01 00:00:00'
p112
aF19.114001599999998
aF72.903789099999997
ag10
aa(lp113
S'1970-01-01 00:00:00'
p114
aF19.11389283116625
aF72.903770475423315
ag10
aa(lp115
S'1970-01-01 00:00:00'
p116
aF19.11371958244052
aF72.903740809953064
ag10
aa(lp117
S'1970-01-01 00:00:00'
p118
aF19.11371958244052
aF72.903740809953064
ag10
aa(lp119
S'1970-01-01 00:00:00'
p120
aF19.11371958244052
aF72.903740809953064
ag10
aa(lp121
S'1970-01-01 00:00:00'
p122
aF19.113698499999998
aF72.903737199999995
ag10
aa(lp123
S'1970-01-01 00:00:00'
p124
aF19.113557800000002
aF72.903705399999993
ag10
aa(lp125
S'1970-01-01 00:00:00'
p126
aF19.113514800000004
aF72.903691600000002
ag10
aa(lp127
S'1970-01-01 00:00:00'
p128
aF19.113482099999999
aF72.903674100000003
ag10
aa(lp129
S'1970-01-01 00:00:00'
p130
aF19.113446799999998
aF72.903652100000002
ag10
aa(lp131
S'1970-01-01 00:00:00'
p132
aF19.113418899999999
aF72.903626500000016
ag10
aa(lp133
S'1970-01-01 00:00:00'
p134
aF19.113399000000001
aF72.903596399999998
ag10
aa(lp135
S'1970-01-01 00:00:00'
p136
aF19.113375299999998
aF72.903544499999995
ag10
aa(lp137
S'1970-01-01 00:00:00'
p138
aF19.113367489580892
aF72.903522793361475
ag10
aa(lp139
S'1970-01-01 00:00:00'
p140
aF19.113367489580892
aF72.903522793361475
ag10
aa(lp141
S'1970-01-01 00:00:00'
p142
aF19.113367489580892
aF72.903522793361475
ag10
aa(lp143
S'1970-01-01 00:00:00'
p144
aF19.113367489580892
aF72.903522793361475
ag10
aa(lp145
S'1970-01-01 00:00:00'
p146
aF19.113272500000001
aF72.903258800000003
ag10
aa(lp147
S'1970-01-01 00:00:00'
p148
aF19.113229099999998
aF72.90308499999999
ag10
aa(lp149
S'1970-01-01 00:00:00'
p150
aF19.113226600000001
aF72.903026799999992
ag10
aa(lp151
S'1970-01-01 00:00:00'
p152
aF19.113226600000001
aF72.903026799999992
ag10
aa(lp153
S'1970-01-01 00:00:00'
p154
aF19.113248899999999
aF72.902895700000002
ag10
aa(lp155
S'1970-01-01 00:00:00'
p156
aF19.113265299999998
aF72.902824999999993
ag10
aa(lp157
S'1970-01-01 00:00:00'
p158
aF19.1132834
aF72.902761299999995
ag10
aa(lp159
S'1970-01-01 00:00:00'
p160
aF19.113350199999999
aF72.902541999999997
ag10
aa(lp161
S'1970-01-01 00:00:00'
p162
aF19.113387599999999
aF72.902410899999992
ag10
aa(lp163
S'1970-01-01 00:00:00'
p164
aF19.1134244
aF72.9022717
ag10
aa(lp165
S'1970-01-01 00:00:00'
p166
aF19.113447699999998
aF72.902147299999996
ag10
aa(lp167
S'1970-01-01 00:00:00'
p168
aF19.113593999999999
aF72.901126500000004
ag10
aa(lp169
S'1970-01-01 00:00:00'
p170
aF19.113663099999997
aF72.900599799999995
ag10
aa(lp171
S'1970-01-01 00:00:00'
p172
aF19.1136661
aF72.900562600000001
ag10
aa(lp173
S'1970-01-01 00:00:00'
p174
aF19.113665754205734
aF72.900518165329174
ag10
aa(lp175
S'1970-01-01 00:00:00'
p176
aF19.113665699999999
aF72.900511199999997
ag10
aa(lp177
S'1970-01-01 00:00:00'
p178
aF19.113665135573005
aF72.900503384843304
ag10
aa(lp179
S'1970-01-01 00:00:00'
p180
aF19.113661799999999
aF72.900457199999991
ag10
aa(lp181
S'1970-01-01 00:00:00'
p182
aF19.113655099999999
aF72.90040909999999
ag10
aa(lp183
S'1970-01-01 00:00:00'
p184
aF19.113638399999999
aF72.900342100000003
ag10
aa(lp185
S'1970-01-01 00:00:00'
p186
aF19.113600999999996
aF72.900236599999999
ag10
aa(lp187
S'1970-01-01 00:00:00'
p188
aF19.113600999999996
aF72.900236599999999
ag10
aa(lp189
S'1970-01-01 00:00:00'
p190
aF19.113546199999998
aF72.900186500000004
ag10
aa(lp191
S'1970-01-01 00:00:00'
p192
aF19.113546199999998
aF72.900186500000004
ag10
aa(lp193
S'1970-01-01 00:00:00'
p194
aF19.113656499999998
aF72.900064099999994
ag10
aa(lp195
S'1970-01-01 00:00:00'
p196
aF19.113656499999998
aF72.900064099999994
ag10
aa(lp197
S'1970-01-01 00:00:00'
p198
aF19.113816499999999
aF72.899731799999998
ag10
aa(lp199
S'1970-01-01 00:00:00'
p200
aF19.113816499999999
aF72.899731799999998
ag10
aa(lp201
S'1970-01-01 00:00:00'
p202
aF19.114273600000001
aF72.898879600000001
ag10
aa(lp203
S'1970-01-01 00:00:00'
p204
aF19.114273600000001
aF72.898879600000001
ag10
aa(lp205
S'1970-01-01 00:00:00'
p206
aF19.114275941421607
aF72.898825747408083
ag10
aa(lp207
S'1970-01-01 00:00:00'
p208
aF19.114276011433574
aF72.898824137130376
ag10
aa(lp209
S'1970-01-01 00:00:00'
p210
aF19.114277299999998
aF72.898794499999994
ag10
aa(lp211
S'1970-01-01 00:00:00'
p212
aF19.1142766
aF72.898777299999992
ag10
aa(lp213
S'1970-01-01 00:00:00'
p214
aF19.1142766
aF72.898777299999992
ag10
aa(lp215
S'1970-01-01 00:00:00'
p216
aF19.114283031252548
aF72.898761397950508
ag10
aa(lp217
S'1970-01-01 00:00:00'
p218
aF19.114311299999997
aF72.898691499999998
ag10
aa(lp219
S'1970-01-01 00:00:00'
p220
aF19.114311758778477
aF72.898690260795405
ag10
aa(lp221
S'1970-01-01 00:00:00'
p222
aF19.114326216633803
aF72.898651208728552
ag10
aa(lp223
S'1970-01-01 00:00:00'
p224
aF19.114335485924844
aF72.898626171460819
ag10
aa(lp225
S'1970-01-01 00:00:00'
p226
aF19.114341717669131
aF72.898609338899234
ag10
aa(lp227
S'1970-01-01 00:00:00'
p228
aF19.11434440306919
aF72.898602085364715
ag10
aa(lp229
S'1970-01-01 00:00:00'
p230
aF19.114356799999999
aF72.89856859999999
ag10
aa(lp231
S'1970-01-01 00:00:00'
p232
aF19.114366685124136
aF72.898535113057704
ag10
aa(lp233
S'1970-01-01 00:00:00'
p234
aF19.114384580688704
aF72.898474489807526
ag10
aa(lp235
S'1970-01-01 00:00:00'
p236
aF19.114390590678912
aF72.89845413026751
ag10
aa(lp237
S'1970-01-01 00:00:00'
p238
aF19.114403482570715
aF72.898410457455824
ag10
aa(lp239
S'1970-01-01 00:00:00'
p240
aF19.114415840900104
aF72.898368592110899
ag10
aa(lp241
S'1970-01-01 00:00:00'
p242
aF19.114428557084928
aF72.898325514447151
ag10
aa(lp243
S'1970-01-01 00:00:00'
p244
aF19.114431100000004
aF72.898316899999998
ag10
aa(lp245
S'1970-01-01 00:00:00'
p246
aF19.114431100000004
aF72.898316899999998
ag10
aa(lp247
S'1970-01-01 00:00:00'
p248
aF19.114431100000004
aF72.898316899999998
ag10
aa(lp249
S'1970-01-01 00:00:00'
p250
aF19.114431100000004
aF72.898316899999998
ag10
aa(lp251
S'1970-01-01 00:00:00'
p252
aF19.114640700000002
aF72.898337299999994
ag10
aa(lp253
S'1970-01-01 00:00:00'
p254
aF19.1149421
aF72.898394299999993
ag10
aa(lp255
S'1970-01-01 00:00:00'
p256
aF19.115039897205083
aF72.89843045978769
ag10
aas.