(dp1
S'markers_green'
p2
(lp3
(lp4
S'10.3585357666'
p5
acnumpy.core.multiarray
scalar
p6
(cnumpy
dtype
p7
(S'f8'
I0
I1
tRp8
(I3
S'<'
NNNI-1
I-1
I0
tbS'6\x1e\xa9\xf0B\x1d3@'
tRp9
ag6
(g8
S'\xe5,\x8d\x16F:R@'
tRp10
aS'green'
p11
aa(lp12
S'9.85423714774'
p13
ag6
(g8
S'6\x1e\xa9\xf0B\x1d3@'
tRp14
ag6
(g8
S'\xe2#\xee\xfeF:R@'
tRp15
ag11
aa(lp16
S'10.2699519566'
p17
ag6
(g8
S'6\x1e\xa9\xf0B\x1d3@'
tRp18
ag6
(g8
S'\xde\x1aO\xe7G:R@'
tRp19
ag11
aa(lp20
S'9.74048941476'
p21
ag6
(g8
S'6\x1e\xa9\xf0B\x1d3@'
tRp22
ag6
(g8
S'\xdb\x11\xb0\xcfH:R@'
tRp23
ag11
aa(lp24
S'10.2571495904'
p25
ag6
(g8
S'6\x1e\xa9\xf0B\x1d3@'
tRp26
ag6
(g8
S'\xd8\x08\x11\xb8I:R@'
tRp27
ag11
aa(lp28
S'10.0330200195'
p29
ag6
(g8
S'C\x0b\xde\xd9D\x1d3@'
tRp30
ag6
(g8
S'\xf2P\tuB:R@'
tRp31
ag11
aa(lp32
S'10.4967673165'
p33
ag6
(g8
S'C\x0b\xde\xd9D\x1d3@'
tRp34
ag6
(g8
S'\xefGj]C:R@'
tRp35
ag11
aa(lp36
S'9.63150242397'
p37
ag6
(g8
S'C\x0b\xde\xd9D\x1d3@'
tRp38
ag6
(g8
S'\xeb>\xcbED:R@'
tRp39
ag11
aa(lp40
S'10.4178750174'
p41
ag6
(g8
S'C\x0b\xde\xd9D\x1d3@'
tRp42
ag6
(g8
S'\xe85,.E:R@'
tRp43
ag11
aa(lp44
S'9.50834655762'
p45
ag6
(g8
S'C\x0b\xde\xd9D\x1d3@'
tRp46
ag6
(g8
S'\xe5,\x8d\x16F:R@'
tRp47
ag11
aa(lp48
S'10.0354995728'
p49
ag6
(g8
S'C\x0b\xde\xd9D\x1d3@'
tRp50
ag6
(g8
S'\xd8\x08\x11\xb8I:R@'
tRp51
ag11
aa(lp52
S'9.58586730957'
p53
ag6
(g8
S'Q\xf8\x12\xc3F\x1d3@'
tRp54
ag6
(g8
S'\xfft\x85\xd3>:R@'
tRp55
ag11
aa(lp56
S'10.3024270194'
p57
ag6
(g8
S'Q\xf8\x12\xc3F\x1d3@'
tRp58
ag6
(g8
S'\xfck\xe6\xbb?:R@'
tRp59
ag11
aa(lp60
S'10.1942901611'
p61
ag6
(g8
S'Q\xf8\x12\xc3F\x1d3@'
tRp62
ag6
(g8
S'\xf8bG\xa4@:R@'
tRp63
ag11
aa(lp64
S'9.91340637207'
p65
ag6
(g8
S'Q\xf8\x12\xc3F\x1d3@'
tRp66
ag6
(g8
S'\xf5Y\xa8\x8cA:R@'
tRp67
ag11
aa(lp68
S'10.838180542'
p69
ag6
(g8
S'Q\xf8\x12\xc3F\x1d3@'
tRp70
ag6
(g8
S'\xf2P\tuB:R@'
tRp71
ag11
aa(lp72
S'10.0316810608'
p73
ag6
(g8
S'Q\xf8\x12\xc3F\x1d3@'
tRp74
ag6
(g8
S'\xd8\x08\x11\xb8I:R@'
tRp75
ag11
aa(lp76
S'9.82152404785'
p77
ag6
(g8
S'^\xe5G\xacH\x1d3@'
tRp78
ag6
(g8
S'\x0c\x99\x012;:R@'
tRp79
ag11
aa(lp80
S'10.3884604318'
p81
ag6
(g8
S'^\xe5G\xacH\x1d3@'
tRp82
ag6
(g8
S'\t\x90b\x1a<:R@'
tRp83
ag11
aa(lp84
S'10.2024514335'
p85
ag6
(g8
S'^\xe5G\xacH\x1d3@'
tRp86
ag6
(g8
S'\x06\x87\xc3\x02=:R@'
tRp87
ag11
aa(lp88
S'10.1971806117'
p89
ag6
(g8
S'^\xe5G\xacH\x1d3@'
tRp90
ag6
(g8
S'\x02~$\xeb=:R@'
tRp91
ag11
aa(lp92
S'10.304137286'
p93
ag6
(g8
S'^\xe5G\xacH\x1d3@'
tRp94
ag6
(g8
S'\xd8\x08\x11\xb8I:R@'
tRp95
ag11
aa(lp96
S'10.0626896449'
p97
ag6
(g8
S'^\xe5G\xacH\x1d3@'
tRp98
ag6
(g8
S'\xd5\xffq\xa0J:R@'
tRp99
ag11
aa(lp100
S'10.477355957'
p101
ag6
(g8
S'k\xd2|\x95J\x1d3@'
tRp102
ag6
(g8
S'\x19\xbd}\x907:R@'
tRp103
ag11
aa(lp104
S'10.2259150914'
p105
ag6
(g8
S'k\xd2|\x95J\x1d3@'
tRp106
ag6
(g8
S'\x16\xb4\xdex8:R@'
tRp107
ag11
aa(lp108
S'9.9955291748'
p109
ag6
(g8
S'k\xd2|\x95J\x1d3@'
tRp110
ag6
(g8
S'\x13\xab?a9:R@'
tRp111
ag11
aa(lp112
S'9.80867004395'
p113
ag6
(g8
S'k\xd2|\x95J\x1d3@'
tRp114
ag6
(g8
S'\x0f\xa2\xa0I::R@'
tRp115
ag11
aa(lp116
S'10.5549163818'
p117
ag6
(g8
S'k\xd2|\x95J\x1d3@'
tRp118
ag6
(g8
S'\x0c\x99\x012;:R@'
tRp119
ag11
aa(lp120
S'9.44313430786'
p121
ag6
(g8
S'k\xd2|\x95J\x1d3@'
tRp122
ag6
(g8
S'\xd5\xffq\xa0J:R@'
tRp123
ag11
aa(lp124
S'9.88378306422'
p125
ag6
(g8
S'y\xbf\xb1~L\x1d3@'
tRp126
ag6
(g8
S'\xb3d\xb0\xe6\x0c:R@'
tRp127
ag11
aa(lp128
S'10.2312602997'
p129
ag6
(g8
S'y\xbf\xb1~L\x1d3@'
tRp130
ag6
(g8
S'\xb0[\x11\xcf\r:R@'
tRp131
ag11
aa(lp132
S'10.1342597375'
p133
ag6
(g8
S'y\xbf\xb1~L\x1d3@'
tRp134
ag6
(g8
S'\xacRr\xb7\x0e:R@'
tRp135
ag11
aa(lp136
S'9.97526917422'
p137
ag6
(g8
S'y\xbf\xb1~L\x1d3@'
tRp138
ag6
(g8
S'\xa9I\xd3\x9f\x0f:R@'
tRp139
ag11
aa(lp140
S'10.0088975089'
p141
ag6
(g8
S'y\xbf\xb1~L\x1d3@'
tRp142
ag6
(g8
S'\xa6@4\x88\x10:R@'
tRp143
ag11
aa(lp144
S'10.1810574618'
p145
ag6
(g8
S'y\xbf\xb1~L\x1d3@'
tRp146
ag6
(g8
S'\xa37\x95p\x11:R@'
tRp147
ag11
aa(lp148
S'10.1944464481'
p149
ag6
(g8
S'y\xbf\xb1~L\x1d3@'
tRp150
ag6
(g8
S'\x9f.\xf6X\x12:R@'
tRp151
ag11
aa(lp152
S'9.91697692871'
p153
ag6
(g8
S'y\xbf\xb1~L\x1d3@'
tRp154
ag6
(g8
S'&\xe1\xf9\xee3:R@'
tRp155
ag11
aa(lp156
S'9.9419708252'
p157
ag6
(g8
S'y\xbf\xb1~L\x1d3@'
tRp158
ag6
(g8
S'#\xd8Z\xd74:R@'
tRp159
ag11
aa(lp160
S'10.420425415'
p161
ag6
(g8
S'y\xbf\xb1~L\x1d3@'
tRp162
ag6
(g8
S' \xcf\xbb\xbf5:R@'
tRp163
ag11
aa(lp164
S'10.1725267683'
p165
ag6
(g8
S'y\xbf\xb1~L\x1d3@'
tRp166
ag6
(g8
S'\x1c\xc6\x1c\xa86:R@'
tRp167
ag11
aa(lp168
S'7.83891296387'
p169
ag6
(g8
S'y\xbf\xb1~L\x1d3@'
tRp170
ag6
(g8
S'\x19\xbd}\x907:R@'
tRp171
ag11
aa(lp172
S'10.1598739624'
p173
ag6
(g8
S'y\xbf\xb1~L\x1d3@'
tRp174
ag6
(g8
S'\xd5\xffq\xa0J:R@'
tRp175
ag11
aa(lp176
S'10.021581014'
p177
ag6
(g8
S'\x86\xac\xe6gN\x1d3@'
tRp178
ag6
(g8
S'\xb9v\xee\x15\x0b:R@'
tRp179
ag11
aa(lp180
S'10.1000523954'
p181
ag6
(g8
S'\x86\xac\xe6gN\x1d3@'
tRp182
ag6
(g8
S'\xb6mO\xfe\x0b:R@'
tRp183
ag11
aa(lp184
S'10.0436211722'
p185
ag6
(g8
S'\x86\xac\xe6gN\x1d3@'
tRp186
ag6
(g8
S'\xb3d\xb0\xe6\x0c:R@'
tRp187
ag11
aa(lp188
S'10.1267260709'
p189
ag6
(g8
S'\x86\xac\xe6gN\x1d3@'
tRp190
ag6
(g8
S'\xb0[\x11\xcf\r:R@'
tRp191
ag11
aa(lp192
S'10.197265625'
p193
ag6
(g8
S'\x86\xac\xe6gN\x1d3@'
tRp194
ag6
(g8
S'\xacRr\xb7\x0e:R@'
tRp195
ag11
aa(lp196
S'10.0131313926'
p197
ag6
(g8
S'\x86\xac\xe6gN\x1d3@'
tRp198
ag6
(g8
S'\xa9I\xd3\x9f\x0f:R@'
tRp199
ag11
aa(lp200
S'10.0918598175'
p201
ag6
(g8
S'\x86\xac\xe6gN\x1d3@'
tRp202
ag6
(g8
S'\xa6@4\x88\x10:R@'
tRp203
ag11
aa(lp204
S'10.6090037028'
p205
ag6
(g8
S'\x86\xac\xe6gN\x1d3@'
tRp206
ag6
(g8
S'\xa37\x95p\x11:R@'
tRp207
ag11
aa(lp208
S'9.1062374115'
p209
ag6
(g8
S'\x86\xac\xe6gN\x1d3@'
tRp210
ag6
(g8
S'\x9f.\xf6X\x12:R@'
tRp211
ag11
aa(lp212
S'10.1043945609'
p213
ag6
(g8
S'\x86\xac\xe6gN\x1d3@'
tRp214
ag6
(g8
S'\x9c%WA\x13:R@'
tRp215
ag11
aa(lp216
S'10.5612335205'
p217
ag6
(g8
S'\x86\xac\xe6gN\x1d3@'
tRp218
ag6
(g8
S'\x99\x1c\xb8)\x14:R@'
tRp219
ag11
aa(lp220
S'10.0480957031'
p221
ag6
(g8
S'\x86\xac\xe6gN\x1d3@'
tRp222
ag6
(g8
S'\x95\x13\x19\x12\x15:R@'
tRp223
ag11
aa(lp224
S'10.1266326904'
p225
ag6
(g8
S'\x86\xac\xe6gN\x1d3@'
tRp226
ag6
(g8
S'\x92\nz\xfa\x15:R@'
tRp227
ag11
aa(lp228
S'10.3104324341'
p229
ag6
(g8
S'\x86\xac\xe6gN\x1d3@'
tRp230
ag6
(g8
S'\x8f\x01\xdb\xe2\x16:R@'
tRp231
ag11
aa(lp232
S'9.99642181396'
p233
ag6
(g8
S'\x86\xac\xe6gN\x1d3@'
tRp234
ag6
(g8
S'\x8c\xf8;\xcb\x17:R@'
tRp235
ag11
aa(lp236
S'9.91051592146'
p237
ag6
(g8
S'\x86\xac\xe6gN\x1d3@'
tRp238
ag6
(g8
S'3\x05vM0:R@'
tRp239
ag11
aa(lp240
S'10.6011635917'
p241
ag6
(g8
S'\x86\xac\xe6gN\x1d3@'
tRp242
ag6
(g8
S'0\xfc\xd651:R@'
tRp243
ag11
aa(lp244
S'9.75766209194'
p245
ag6
(g8
S'\x86\xac\xe6gN\x1d3@'
tRp246
ag6
(g8
S'-\xf37\x1e2:R@'
tRp247
ag11
aa(lp248
S'10.0344652448'
p249
ag6
(g8
S'\x86\xac\xe6gN\x1d3@'
tRp250
ag6
(g8
S'*\xea\x98\x063:R@'
tRp251
ag11
aa(lp252
S'10.2942657471'
p253
ag6
(g8
S'\x86\xac\xe6gN\x1d3@'
tRp254
ag6
(g8
S'&\xe1\xf9\xee3:R@'
tRp255
ag11
aa(lp256
S'9.74678039551'
p257
ag6
(g8
S'\x86\xac\xe6gN\x1d3@'
tRp258
ag6
(g8
S'\xd5\xffq\xa0J:R@'
tRp259
ag11
aa(lp260
S'10.1697921753'
p261
ag6
(g8
S'\x93\x99\x1bQP\x1d3@'
tRp262
ag6
(g8
S'\xc3\x91\xcb\\\x08:R@'
tRp263
ag11
aa(lp264
S'9.97415408573'
p265
ag6
(g8
S'\x93\x99\x1bQP\x1d3@'
tRp266
ag6
(g8
S'\xc0\x88,E\t:R@'
tRp267
ag11
aa(lp268
S'10.1100349426'
p269
ag6
(g8
S'\x93\x99\x1bQP\x1d3@'
tRp270
ag6
(g8
S'\xbd\x7f\x8d-\n:R@'
tRp271
ag11
aa(lp272
S'10.2506256104'
p273
ag6
(g8
S'\x93\x99\x1bQP\x1d3@'
tRp274
ag6
(g8
S'\xb9v\xee\x15\x0b:R@'
tRp275
ag11
aa(lp276
S'10.1623931885'
p277
ag6
(g8
S'\x93\x99\x1bQP\x1d3@'
tRp278
ag6
(g8
S'\xa6@4\x88\x10:R@'
tRp279
ag11
aa(lp280
S'10.6476318359'
p281
ag6
(g8
S'\x93\x99\x1bQP\x1d3@'
tRp282
ag6
(g8
S'\xa37\x95p\x11:R@'
tRp283
ag11
aa(lp284
S'9.85043473677'
p285
ag6
(g8
S'\x93\x99\x1bQP\x1d3@'
tRp286
ag6
(g8
S'\x9f.\xf6X\x12:R@'
tRp287
ag11
aa(lp288
S'10.2587585449'
p289
ag6
(g8
S'\x93\x99\x1bQP\x1d3@'
tRp290
ag6
(g8
S'\x9c%WA\x13:R@'
tRp291
ag11
aa(lp292
S'10.3103645726'
p293
ag6
(g8
S'\x93\x99\x1bQP\x1d3@'
tRp294
ag6
(g8
S'\x99\x1c\xb8)\x14:R@'
tRp295
ag11
aa(lp296
S'9.88002166748'
p297
ag6
(g8
S'\x93\x99\x1bQP\x1d3@'
tRp298
ag6
(g8
S'\x95\x13\x19\x12\x15:R@'
tRp299
ag11
aa(lp300
S'9.54175527472'
p301
ag6
(g8
S'\x93\x99\x1bQP\x1d3@'
tRp302
ag6
(g8
S'\x8f\x01\xdb\xe2\x16:R@'
tRp303
ag11
aa(lp304
S'7.30987548828'
p305
ag6
(g8
S'\x93\x99\x1bQP\x1d3@'
tRp306
ag6
(g8
S'\x8c\xf8;\xcb\x17:R@'
tRp307
ag11
aa(lp308
S'10.4635966908'
p309
ag6
(g8
S'\x93\x99\x1bQP\x1d3@'
tRp310
ag6
(g8
S'\x88\xef\x9c\xb3\x18:R@'
tRp311
ag11
aa(lp312
S'10.2657012939'
p313
ag6
(g8
S'\x93\x99\x1bQP\x1d3@'
tRp314
ag6
(g8
S'\x82\xdd^\x84\x1a:R@'
tRp315
ag11
aa(lp316
S'9.96260070801'
p317
ag6
(g8
S'\x93\x99\x1bQP\x1d3@'
tRp318
ag6
(g8
S'\x7f\xd4\xbfl\x1b:R@'
tRp319
ag11
aa(lp320
S'10.094446818'
p321
ag6
(g8
S'\x93\x99\x1bQP\x1d3@'
tRp322
ag6
(g8
S'{\xcb U\x1c:R@'
tRp323
ag11
aa(lp324
S'9.09574890137'
p325
ag6
(g8
S'\x93\x99\x1bQP\x1d3@'
tRp326
ag6
(g8
S'k\x9e\x05\xdf :R@'
tRp327
ag11
aa(lp328
S'10.0571212769'
p329
ag6
(g8
S'\x93\x99\x1bQP\x1d3@'
tRp330
ag6
(g8
S'h\x95f\xc7!:R@'
tRp331
ag11
aa(lp332
S'10.2200616455'
p333
ag6
(g8
S'\x93\x99\x1bQP\x1d3@'
tRp334
ag6
(g8
S'd\x8c\xc7\xaf":R@'
tRp335
ag11
aa(lp336
S'10.445589338'
p337
ag6
(g8
S'\x93\x99\x1bQP\x1d3@'
tRp338
ag6
(g8
S'@)\xf2\xab,:R@'
tRp339
ag11
aa(lp340
S'10.3988320487'
p341
ag6
(g8
S'\x93\x99\x1bQP\x1d3@'
tRp342
ag6
(g8
S'= S\x94-:R@'
tRp343
ag11
aa(lp344
S'9.78707667759'
p345
ag6
(g8
S'\x93\x99\x1bQP\x1d3@'
tRp346
ag6
(g8
S':\x17\xb4|.:R@'
tRp347
ag11
aa(lp348
S'10.1793278285'
p349
ag6
(g8
S'\x93\x99\x1bQP\x1d3@'
tRp350
ag6
(g8
S'7\x0e\x15e/:R@'
tRp351
ag11
aa(lp352
S'9.78169250488'
p353
ag6
(g8
S'\x93\x99\x1bQP\x1d3@'
tRp354
ag6
(g8
S'\xd5\xffq\xa0J:R@'
tRp355
ag11
aa(lp356
S'10.3040252686'
p357
ag6
(g8
S'\xa1\x86P:R\x1d3@'
tRp358
ag6
(g8
S'\xca\xa3\t\x8c\x06:R@'
tRp359
ag11
aa(lp360
S'9.69195747375'
p361
ag6
(g8
S'\xa1\x86P:R\x1d3@'
tRp362
ag6
(g8
S'\xc6\x9ajt\x07:R@'
tRp363
ag11
aa(lp364
S'9.5408782959'
p365
ag6
(g8
S'\xa1\x86P:R\x1d3@'
tRp366
ag6
(g8
S'\xc3\x91\xcb\\\x08:R@'
tRp367
ag11
aa(lp368
S'9.22436332703'
p369
ag6
(g8
S'\xa1\x86P:R\x1d3@'
tRp370
ag6
(g8
S'\xbd\x7f\x8d-\n:R@'
tRp371
ag11
aa(lp372
S'10.7893829346'
p373
ag6
(g8
S'\xa1\x86P:R\x1d3@'
tRp374
ag6
(g8
S'\xb9v\xee\x15\x0b:R@'
tRp375
ag11
aa(lp376
S'9.20643615723'
p377
ag6
(g8
S'\xa1\x86P:R\x1d3@'
tRp378
ag6
(g8
S'\x8f\x01\xdb\xe2\x16:R@'
tRp379
ag11
aa(lp380
S'10.4595933394'
p381
ag6
(g8
S'\xa1\x86P:R\x1d3@'
tRp382
ag6
(g8
S'\x8c\xf8;\xcb\x17:R@'
tRp383
ag11
aa(lp384
S'10.0263549805'
p385
ag6
(g8
S'\xa1\x86P:R\x1d3@'
tRp386
ag6
(g8
S'\x88\xef\x9c\xb3\x18:R@'
tRp387
ag11
aa(lp388
S'9.99754333496'
p389
ag6
(g8
S'\xa1\x86P:R\x1d3@'
tRp390
ag6
(g8
S'\x85\xe6\xfd\x9b\x19:R@'
tRp391
ag11
aa(lp392
S'9.54079013401'
p393
ag6
(g8
S'\xa1\x86P:R\x1d3@'
tRp394
ag6
(g8
S'\x82\xdd^\x84\x1a:R@'
tRp395
ag11
aa(lp396
S'10.1131933804'
p397
ag6
(g8
S'\xa1\x86P:R\x1d3@'
tRp398
ag6
(g8
S'\x7f\xd4\xbfl\x1b:R@'
tRp399
ag11
aa(lp400
S'10.3943565123'
p401
ag6
(g8
S'\xa1\x86P:R\x1d3@'
tRp402
ag6
(g8
S'{\xcb U\x1c:R@'
tRp403
ag11
aa(lp404
S'10.0259246826'
p405
ag6
(g8
S'\xa1\x86P:R\x1d3@'
tRp406
ag6
(g8
S'x\xc2\x81=\x1d:R@'
tRp407
ag11
aa(lp408
S'10.129298817'
p409
ag6
(g8
S'\xa1\x86P:R\x1d3@'
tRp410
ag6
(g8
S'u\xb9\xe2%\x1e:R@'
tRp411
ag11
aa(lp412
S'10.0899296811'
p413
ag6
(g8
S'\xa1\x86P:R\x1d3@'
tRp414
ag6
(g8
S'q\xb0C\x0e\x1f:R@'
tRp415
ag11
aa(lp416
S'10.1965723726'
p417
ag6
(g8
S'\xa1\x86P:R\x1d3@'
tRp418
ag6
(g8
S'n\xa7\xa4\xf6\x1f:R@'
tRp419
ag11
aa(lp420
S'10.1369685582'
p421
ag6
(g8
S'\xa1\x86P:R\x1d3@'
tRp422
ag6
(g8
S'k\x9e\x05\xdf :R@'
tRp423
ag11
aa(lp424
S'10.3161651611'
p425
ag6
(g8
S'\xa1\x86P:R\x1d3@'
tRp426
ag6
(g8
S'h\x95f\xc7!:R@'
tRp427
ag11
aa(lp428
S'10.1076928634'
p429
ag6
(g8
S'\xa1\x86P:R\x1d3@'
tRp430
ag6
(g8
S'd\x8c\xc7\xaf":R@'
tRp431
ag11
aa(lp432
S'10.164992815'
p433
ag6
(g8
S'\xa1\x86P:R\x1d3@'
tRp434
ag6
(g8
S'a\x83(\x98#:R@'
tRp435
ag11
aa(lp436
S'9.41412353516'
p437
ag6
(g8
S'\xa1\x86P:R\x1d3@'
tRp438
ag6
(g8
S'^z\x89\x80$:R@'
tRp439
ag11
aa(lp440
S'9.99197389654'
p441
ag6
(g8
S'\xa1\x86P:R\x1d3@'
tRp442
ag6
(g8
S'NMn\n):R@'
tRp443
ag11
aa(lp444
S'10.1993909563'
p445
ag6
(g8
S'\xa1\x86P:R\x1d3@'
tRp446
ag6
(g8
S'JD\xcf\xf2):R@'
tRp447
ag11
aa(lp448
S'10.1982007708'
p449
ag6
(g8
S'\xa1\x86P:R\x1d3@'
tRp450
ag6
(g8
S'G;0\xdb*:R@'
tRp451
ag11
aa(lp452
S'9.76531328474'
p453
ag6
(g8
S'\xa1\x86P:R\x1d3@'
tRp454
ag6
(g8
S'D2\x91\xc3+:R@'
tRp455
ag11
aa(lp456
S'9.87651062012'
p457
ag6
(g8
S'\xa1\x86P:R\x1d3@'
tRp458
ag6
(g8
S'\xd5\xffq\xa0J:R@'
tRp459
ag11
aa(lp460
S'9.85869887779'
p461
ag6
(g8
S'\xaes\x85#T\x1d3@'
tRp462
ag6
(g8
S'\xd0\xb5G\xbb\x04:R@'
tRp463
ag11
aa(lp464
S'10.0420951843'
p465
ag6
(g8
S'\xaes\x85#T\x1d3@'
tRp466
ag6
(g8
S'\xcd\xac\xa8\xa3\x05:R@'
tRp467
ag11
aa(lp468
S'10.4509735107'
p469
ag6
(g8
S'\xaes\x85#T\x1d3@'
tRp470
ag6
(g8
S'\xca\xa3\t\x8c\x06:R@'
tRp471
ag11
aa(lp472
S'9.08364868164'
p473
ag6
(g8
S'\xaes\x85#T\x1d3@'
tRp474
ag6
(g8
S'\xc6\x9ajt\x07:R@'
tRp475
ag11
aa(lp476
S'8.34814235142'
p477
ag6
(g8
S'\xaes\x85#T\x1d3@'
tRp478
ag6
(g8
S'\xc3\x91\xcb\\\x08:R@'
tRp479
ag11
aa(lp480
S'9.55952453613'
p481
ag6
(g8
S'\xaes\x85#T\x1d3@'
tRp482
ag6
(g8
S'\xc0\x88,E\t:R@'
tRp483
ag11
aa(lp484
S'10.5217102051'
p485
ag6
(g8
S'\xaes\x85#T\x1d3@'
tRp486
ag6
(g8
S'\xbd\x7f\x8d-\n:R@'
tRp487
ag11
aa(lp488
S'9.84630966187'
p489
ag6
(g8
S'\xaes\x85#T\x1d3@'
tRp490
ag6
(g8
S'\x9c%WA\x13:R@'
tRp491
ag11
aa(lp492
S'9.82295227051'
p493
ag6
(g8
S'\xaes\x85#T\x1d3@'
tRp494
ag6
(g8
S'\x99\x1c\xb8)\x14:R@'
tRp495
ag11
aa(lp496
S'10.5623975481'
p497
ag6
(g8
S'\xaes\x85#T\x1d3@'
tRp498
ag6
(g8
S'\x95\x13\x19\x12\x15:R@'
tRp499
ag11
aa(lp500
S'9.91206741333'
p501
ag6
(g8
S'\xaes\x85#T\x1d3@'
tRp502
ag6
(g8
S'\x92\nz\xfa\x15:R@'
tRp503
ag11
aa(lp504
S'10.1806030273'
p505
ag6
(g8
S'\xaes\x85#T\x1d3@'
tRp506
ag6
(g8
S'\x8f\x01\xdb\xe2\x16:R@'
tRp507
ag11
aa(lp508
S'10.0612869263'
p509
ag6
(g8
S'\xaes\x85#T\x1d3@'
tRp510
ag6
(g8
S'\x8c\xf8;\xcb\x17:R@'
tRp511
ag11
aa(lp512
S'10.7953338623'
p513
ag6
(g8
S'\xaes\x85#T\x1d3@'
tRp514
ag6
(g8
S'\x88\xef\x9c\xb3\x18:R@'
tRp515
ag11
aa(lp516
S'9.87685067313'
p517
ag6
(g8
S'\xaes\x85#T\x1d3@'
tRp518
ag6
(g8
S'\x85\xe6\xfd\x9b\x19:R@'
tRp519
ag11
aa(lp520
S'10.5287322998'
p521
ag6
(g8
S'\xaes\x85#T\x1d3@'
tRp522
ag6
(g8
S'x\xc2\x81=\x1d:R@'
tRp523
ag11
aa(lp524
S'10.4290367575'
p525
ag6
(g8
S'\xaes\x85#T\x1d3@'
tRp526
ag6
(g8
S'u\xb9\xe2%\x1e:R@'
tRp527
ag11
aa(lp528
S'10.0955047607'
p529
ag6
(g8
S'\xaes\x85#T\x1d3@'
tRp530
ag6
(g8
S'q\xb0C\x0e\x1f:R@'
tRp531
ag11
aa(lp532
S'10.4054939964'
p533
ag6
(g8
S'\xaes\x85#T\x1d3@'
tRp534
ag6
(g8
S'n\xa7\xa4\xf6\x1f:R@'
tRp535
ag11
aa(lp536
S'10.0730697632'
p537
ag6
(g8
S'\xaes\x85#T\x1d3@'
tRp538
ag6
(g8
S'k\x9e\x05\xdf :R@'
tRp539
ag11
aa(lp540
S'10.1359953588'
p541
ag6
(g8
S'\xaes\x85#T\x1d3@'
tRp542
ag6
(g8
S'h\x95f\xc7!:R@'
tRp543
ag11
aa(lp544
S'10.0792909948'
p545
ag6
(g8
S'\xaes\x85#T\x1d3@'
tRp546
ag6
(g8
S'd\x8c\xc7\xaf":R@'
tRp547
ag11
aa(lp548
S'10.2000137501'
p549
ag6
(g8
S'\xaes\x85#T\x1d3@'
tRp550
ag6
(g8
S'a\x83(\x98#:R@'
tRp551
ag11
aa(lp552
S'10.0092089618'
p553
ag6
(g8
S'\xaes\x85#T\x1d3@'
tRp554
ag6
(g8
S'^z\x89\x80$:R@'
tRp555
ag11
aa(lp556
S'10.0853320428'
p557
ag6
(g8
S'\xaes\x85#T\x1d3@'
tRp558
ag6
(g8
S'[q\xeah%:R@'
tRp559
ag11
aa(lp560
S'10.0134124756'
p561
ag6
(g8
S'\xaes\x85#T\x1d3@'
tRp562
ag6
(g8
S'WhKQ&:R@'
tRp563
ag11
aa(lp564
S'10.0488074808'
p565
ag6
(g8
S'\xaes\x85#T\x1d3@'
tRp566
ag6
(g8
S"T_\xac9':R@"
tRp567
ag11
aa(lp568
S'9.97907584054'
p569
ag6
(g8
S'\xaes\x85#T\x1d3@'
tRp570
ag6
(g8
S'QV\r"(:R@'
tRp571
ag11
aa(lp572
S'10.0950164795'
p573
ag6
(g8
S'\xaes\x85#T\x1d3@'
tRp574
ag6
(g8
S'NMn\n):R@'
tRp575
ag11
aa(lp576
S'9.63099234445'
p577
ag6
(g8
S'\xaes\x85#T\x1d3@'
tRp578
ag6
(g8
S'JD\xcf\xf2):R@'
tRp579
ag11
aa(lp580
S'9.01580810547'
p581
ag6
(g8
S'\xaes\x85#T\x1d3@'
tRp582
ag6
(g8
S'G;0\xdb*:R@'
tRp583
ag11
aa(lp584
S'10.7423706055'
p585
ag6
(g8
S'\xaes\x85#T\x1d3@'
tRp586
ag6
(g8
S'D2\x91\xc3+:R@'
tRp587
ag11
aa(lp588
S'5.08680725098'
p589
ag6
(g8
S'\xaes\x85#T\x1d3@'
tRp590
ag6
(g8
S'= S\x94-:R@'
tRp591
ag11
aa(lp592
S'3.04297528948'
p593
ag6
(g8
S'\xaes\x85#T\x1d3@'
tRp594
ag6
(g8
S':\x17\xb4|.:R@'
tRp595
ag11
aa(lp596
S'7.87124633789'
p597
ag6
(g8
S'\xaes\x85#T\x1d3@'
tRp598
ag6
(g8
S'7\x0e\x15e/:R@'
tRp599
ag11
aa(lp600
S'10.5832824707'
p601
ag6
(g8
S'\xaes\x85#T\x1d3@'
tRp602
ag6
(g8
S'3\x05vM0:R@'
tRp603
ag11
aa(lp604
S'7.7179107666'
p605
ag6
(g8
S'\xaes\x85#T\x1d3@'
tRp606
ag6
(g8
S'-\xf37\x1e2:R@'
tRp607
ag11
aa(lp608
S'8.99407305036'
p609
ag6
(g8
S'\xaes\x85#T\x1d3@'
tRp610
ag6
(g8
S'*\xea\x98\x063:R@'
tRp611
ag11
aa(lp612
S'10.4495849609'
p613
ag6
(g8
S'\xaes\x85#T\x1d3@'
tRp614
ag6
(g8
S'&\xe1\xf9\xee3:R@'
tRp615
ag11
aa(lp616
S'9.85607910156'
p617
ag6
(g8
S'\xaes\x85#T\x1d3@'
tRp618
ag6
(g8
S'#\xd8Z\xd74:R@'
tRp619
ag11
aa(lp620
S'9.69985307966'
p621
ag6
(g8
S'\xaes\x85#T\x1d3@'
tRp622
ag6
(g8
S' \xcf\xbb\xbf5:R@'
tRp623
ag11
aa(lp624
S'9.34092712402'
p625
ag6
(g8
S'\xaes\x85#T\x1d3@'
tRp626
ag6
(g8
S'\x1c\xc6\x1c\xa86:R@'
tRp627
ag11
aa(lp628
S'9.58678545271'
p629
ag6
(g8
S'\xaes\x85#T\x1d3@'
tRp630
ag6
(g8
S'\x19\xbd}\x907:R@'
tRp631
ag11
aa(lp632
S'9.49644470215'
p633
ag6
(g8
S'\xaes\x85#T\x1d3@'
tRp634
ag6
(g8
S'\x16\xb4\xdex8:R@'
tRp635
ag11
aa(lp636
S'9.66168212891'
p637
ag6
(g8
S'\xaes\x85#T\x1d3@'
tRp638
ag6
(g8
S'\x13\xab?a9:R@'
tRp639
ag11
aa(lp640
S'9.65700639997'
p641
ag6
(g8
S'\xaes\x85#T\x1d3@'
tRp642
ag6
(g8
S'\x0f\xa2\xa0I::R@'
tRp643
ag11
aa(lp644
S'9.9522857666'
p645
ag6
(g8
S'\xaes\x85#T\x1d3@'
tRp646
ag6
(g8
S'\x0c\x99\x012;:R@'
tRp647
ag11
aa(lp648
S'10.4702431815'
p649
ag6
(g8
S'\xaes\x85#T\x1d3@'
tRp650
ag6
(g8
S'\t\x90b\x1a<:R@'
tRp651
ag11
aa(lp652
S'9.50100708008'
p653
ag6
(g8
S'\xaes\x85#T\x1d3@'
tRp654
ag6
(g8
S'\x06\x87\xc3\x02=:R@'
tRp655
ag11
aa(lp656
S'9.95591299874'
p657
ag6
(g8
S'\xaes\x85#T\x1d3@'
tRp658
ag6
(g8
S'\x02~$\xeb=:R@'
tRp659
ag11
aa(lp660
S'10.1371612549'
p661
ag6
(g8
S'\xaes\x85#T\x1d3@'
tRp662
ag6
(g8
S'\xfft\x85\xd3>:R@'
tRp663
ag11
aa(lp664
S'10.5192108154'
p665
ag6
(g8
S'\xaes\x85#T\x1d3@'
tRp666
ag6
(g8
S'\xfck\xe6\xbb?:R@'
tRp667
ag11
aa(lp668
S'10.4185551235'
p669
ag6
(g8
S'\xaes\x85#T\x1d3@'
tRp670
ag6
(g8
S'\xf8bG\xa4@:R@'
tRp671
ag11
aa(lp672
S'9.5168762207'
p673
ag6
(g8
S'\xaes\x85#T\x1d3@'
tRp674
ag6
(g8
S'\xf5Y\xa8\x8cA:R@'
tRp675
ag11
aa(lp676
S'9.52520751953'
p677
ag6
(g8
S'\xaes\x85#T\x1d3@'
tRp678
ag6
(g8
S'\xf2P\tuB:R@'
tRp679
ag11
aa(lp680
S'9.91765703474'
p681
ag6
(g8
S'\xaes\x85#T\x1d3@'
tRp682
ag6
(g8
S'\xefGj]C:R@'
tRp683
ag11
aa(lp684
S'10.3507995605'
p685
ag6
(g8
S'\xaes\x85#T\x1d3@'
tRp686
ag6
(g8
S'\xeb>\xcbED:R@'
tRp687
ag11
aa(lp688
S'9.98158700126'
p689
ag6
(g8
S'\xaes\x85#T\x1d3@'
tRp690
ag6
(g8
S'\xe85,.E:R@'
tRp691
ag11
aa(lp692
S'10.1260528564'
p693
ag6
(g8
S'\xaes\x85#T\x1d3@'
tRp694
ag6
(g8
S'\xe5,\x8d\x16F:R@'
tRp695
ag11
aa(lp696
S'10.0786721366'
p697
ag6
(g8
S'\xaes\x85#T\x1d3@'
tRp698
ag6
(g8
S'\xe2#\xee\xfeF:R@'
tRp699
ag11
aa(lp700
S'10.1792144775'
p701
ag6
(g8
S'\xaes\x85#T\x1d3@'
tRp702
ag6
(g8
S'\xde\x1aO\xe7G:R@'
tRp703
ag11
aa(lp704
S'10.7445526123'
p705
ag6
(g8
S'\xaes\x85#T\x1d3@'
tRp706
ag6
(g8
S'\xdb\x11\xb0\xcfH:R@'
tRp707
ag11
aa(lp708
S'9.93364835445'
p709
ag6
(g8
S'\xaes\x85#T\x1d3@'
tRp710
ag6
(g8
S'\xd8\x08\x11\xb8I:R@'
tRp711
ag11
aa(lp712
S'9.56830215454'
p713
ag6
(g8
S'\xaes\x85#T\x1d3@'
tRp714
ag6
(g8
S'\xd5\xffq\xa0J:R@'
tRp715
ag11
aa(lp716
S'8.58377075195'
p717
ag6
(g8
S'\xbb`\xba\x0cV\x1d3@'
tRp718
ag6
(g8
S'\xda\xd0$\x02\x02:R@'
tRp719
ag11
aa(lp720
S'10.318530175'
p721
ag6
(g8
S'\xbb`\xba\x0cV\x1d3@'
tRp722
ag6
(g8
S'\xd7\xc7\x85\xea\x02:R@'
tRp723
ag11
aa(lp724
S'10.1096754074'
p725
ag6
(g8
S'\xbb`\xba\x0cV\x1d3@'
tRp726
ag6
(g8
S'\xd4\xbe\xe6\xd2\x03:R@'
tRp727
ag11
aa(lp728
S'10.0550384521'
p729
ag6
(g8
S'\xbb`\xba\x0cV\x1d3@'
tRp730
ag6
(g8
S'\xc6\x9ajt\x07:R@'
tRp731
ag11
aa(lp732
S'10.0683288574'
p733
ag6
(g8
S'\xbb`\xba\x0cV\x1d3@'
tRp734
ag6
(g8
S'\xc0\x88,E\t:R@'
tRp735
ag11
aa(lp736
S'10.4805297852'
p737
ag6
(g8
S'\xbb`\xba\x0cV\x1d3@'
tRp738
ag6
(g8
S'\xb6mO\xfe\x0b:R@'
tRp739
ag11
aa(lp740
S'9.89094161987'
p741
ag6
(g8
S'\xbb`\xba\x0cV\x1d3@'
tRp742
ag6
(g8
S'\xb3d\xb0\xe6\x0c:R@'
tRp743
ag11
aa(lp744
S'9.07721601214'
p745
ag6
(g8
S'\xbb`\xba\x0cV\x1d3@'
tRp746
ag6
(g8
S'\xb0[\x11\xcf\r:R@'
tRp747
ag11
aa(lp748
S'10.1005630493'
p749
ag6
(g8
S'\xbb`\xba\x0cV\x1d3@'
tRp750
ag6
(g8
S'\xa9I\xd3\x9f\x0f:R@'
tRp751
ag11
aa(lp752
S'9.70542144775'
p753
ag6
(g8
S'\xbb`\xba\x0cV\x1d3@'
tRp754
ag6
(g8
S'\xa6@4\x88\x10:R@'
tRp755
ag11
aa(lp756
S'10.3625526428'
p757
ag6
(g8
S'\xbb`\xba\x0cV\x1d3@'
tRp758
ag6
(g8
S'\xa37\x95p\x11:R@'
tRp759
ag11
aa(lp760
S'10.2361166818'
p761
ag6
(g8
S'\xbb`\xba\x0cV\x1d3@'
tRp762
ag6
(g8
S'\x9f.\xf6X\x12:R@'
tRp763
ag11
aa(lp764
S'10.4366119385'
p765
ag6
(g8
S'\xbb`\xba\x0cV\x1d3@'
tRp766
ag6
(g8
S'{\xcb U\x1c:R@'
tRp767
ag11
aa(lp768
S'9.56607055664'
p769
ag6
(g8
S'\xbb`\xba\x0cV\x1d3@'
tRp770
ag6
(g8
S'x\xc2\x81=\x1d:R@'
tRp771
ag11
aa(lp772
S'10.2749646658'
p773
ag6
(g8
S'\xbb`\xba\x0cV\x1d3@'
tRp774
ag6
(g8
S'a\x83(\x98#:R@'
tRp775
ag11
aa(lp776
S'10.1373660775'
p777
ag6
(g8
S'\xbb`\xba\x0cV\x1d3@'
tRp778
ag6
(g8
S'^z\x89\x80$:R@'
tRp779
ag11
aa(lp780
S'10.1568746446'
p781
ag6
(g8
S'\xbb`\xba\x0cV\x1d3@'
tRp782
ag6
(g8
S'[q\xeah%:R@'
tRp783
ag11
aa(lp784
S'10.1147338057'
p785
ag6
(g8
S'\xbb`\xba\x0cV\x1d3@'
tRp786
ag6
(g8
S'WhKQ&:R@'
tRp787
ag11
aa(lp788
S'10.1958236694'
p789
ag6
(g8
S'\xbb`\xba\x0cV\x1d3@'
tRp790
ag6
(g8
S"T_\xac9':R@"
tRp791
ag11
aa(lp792
S'10.1454925537'
p793
ag6
(g8
S'\xbb`\xba\x0cV\x1d3@'
tRp794
ag6
(g8
S'QV\r"(:R@'
tRp795
ag11
aa(lp796
S'10.1361694336'
p797
ag6
(g8
S'\xbb`\xba\x0cV\x1d3@'
tRp798
ag6
(g8
S'NMn\n):R@'
tRp799
ag11
aa(lp800
S'9.82191732655'
p801
ag6
(g8
S'\xbb`\xba\x0cV\x1d3@'
tRp802
ag6
(g8
S'JD\xcf\xf2):R@'
tRp803
ag11
aa(lp804
S'10.0489064092'
p805
ag6
(g8
S'\xbb`\xba\x0cV\x1d3@'
tRp806
ag6
(g8
S'G;0\xdb*:R@'
tRp807
ag11
aa(lp808
S'5.13986968994'
p809
ag6
(g8
S'\xbb`\xba\x0cV\x1d3@'
tRp810
ag6
(g8
S'D2\x91\xc3+:R@'
tRp811
ag11
aa(lp812
S'9.7261505127'
p813
ag6
(g8
S'\xbb`\xba\x0cV\x1d3@'
tRp814
ag6
(g8
S'\xd8\x08\x11\xb8I:R@'
tRp815
ag11
aa(lp816
S'9.88489859445'
p817
ag6
(g8
S'\xbb`\xba\x0cV\x1d3@'
tRp818
ag6
(g8
S'\xd5\xffq\xa0J:R@'
tRp819
ag11
aa(lp820
S'9.59018173218'
p821
ag6
(g8
S'\xbb`\xba\x0cV\x1d3@'
tRp822
ag6
(g8
S'\xd1\xf6\xd2\x88K:R@'
tRp823
ag11
aa(lp824
S'10.5606292725'
p825
ag6
(g8
S'\xc9M\xef\xf5W\x1d3@'
tRp826
ag6
(g8
S'\xda\xd0$\x02\x02:R@'
tRp827
ag11
aa(lp828
S'9.39567565918'
p829
ag6
(g8
S'\xc9M\xef\xf5W\x1d3@'
tRp830
ag6
(g8
S'\xd7\xc7\x85\xea\x02:R@'
tRp831
ag11
aa(lp832
S'10.4553375244'
p833
ag6
(g8
S'\xc9M\xef\xf5W\x1d3@'
tRp834
ag6
(g8
S'\xd0\xb5G\xbb\x04:R@'
tRp835
ag11
aa(lp836
S'10.0405621736'
p837
ag6
(g8
S'\xc9M\xef\xf5W\x1d3@'
tRp838
ag6
(g8
S'\xcd\xac\xa8\xa3\x05:R@'
tRp839
ag11
aa(lp840
S'10.9341392517'
p841
ag6
(g8
S'\xc9M\xef\xf5W\x1d3@'
tRp842
ag6
(g8
S'\xca\xa3\t\x8c\x06:R@'
tRp843
ag11
aa(lp844
S'7.81272888184'
p845
ag6
(g8
S'\xc9M\xef\xf5W\x1d3@'
tRp846
ag6
(g8
S'\xc6\x9ajt\x07:R@'
tRp847
ag11
aa(lp848
S'9.96045837402'
p849
ag6
(g8
S'\xc9M\xef\xf5W\x1d3@'
tRp850
ag6
(g8
S'\xc3\x91\xcb\\\x08:R@'
tRp851
ag11
aa(lp852
S'10.5645370483'
p853
ag6
(g8
S'\xc9M\xef\xf5W\x1d3@'
tRp854
ag6
(g8
S'\xc0\x88,E\t:R@'
tRp855
ag11
aa(lp856
S'9.83232498169'
p857
ag6
(g8
S'\xc9M\xef\xf5W\x1d3@'
tRp858
ag6
(g8
S'\xbd\x7f\x8d-\n:R@'
tRp859
ag11
aa(lp860
S'9.63286263602'
p861
ag6
(g8
S'\xc9M\xef\xf5W\x1d3@'
tRp862
ag6
(g8
S'\xb9v\xee\x15\x0b:R@'
tRp863
ag11
aa(lp864
S'9.69662257603'
p865
ag6
(g8
S'\xc9M\xef\xf5W\x1d3@'
tRp866
ag6
(g8
S'\x7f\xd4\xbfl\x1b:R@'
tRp867
ag11
aa(lp868
S'10.4120941162'
p869
ag6
(g8
S'\xc9M\xef\xf5W\x1d3@'
tRp870
ag6
(g8
S'{\xcb U\x1c:R@'
tRp871
ag11
aa(lp872
S'9.9879119873'
p873
ag6
(g8
S'\xc9M\xef\xf5W\x1d3@'
tRp874
ag6
(g8
S'WhKQ&:R@'
tRp875
ag11
aa(lp876
S'9.35025024414'
p877
ag6
(g8
S'\xc9M\xef\xf5W\x1d3@'
tRp878
ag6
(g8
S"T_\xac9':R@"
tRp879
ag11
aa(lp880
S'10.1776275635'
p881
ag6
(g8
S'\xc9M\xef\xf5W\x1d3@'
tRp882
ag6
(g8
S'NMn\n):R@'
tRp883
ag11
aa(lp884
S'9.62121582031'
p885
ag6
(g8
S'\xc9M\xef\xf5W\x1d3@'
tRp886
ag6
(g8
S'JD\xcf\xf2):R@'
tRp887
ag11
aa(lp888
S'9.6322845459'
p889
ag6
(g8
S'\xc9M\xef\xf5W\x1d3@'
tRp890
ag6
(g8
S'G;0\xdb*:R@'
tRp891
ag11
aa(lp892
S'10.8839630127'
p893
ag6
(g8
S'\xc9M\xef\xf5W\x1d3@'
tRp894
ag6
(g8
S'D2\x91\xc3+:R@'
tRp895
ag11
aa(lp896
S'10.2391304592'
p897
ag6
(g8
S'\xc9M\xef\xf5W\x1d3@'
tRp898
ag6
(g8
S'@)\xf2\xab,:R@'
tRp899
ag11
aa(lp900
S'10.211473465'
p901
ag6
(g8
S'\xc9M\xef\xf5W\x1d3@'
tRp902
ag6
(g8
S'= S\x94-:R@'
tRp903
ag11
aa(lp904
S'10.1097869873'
p905
ag6
(g8
S'\xc9M\xef\xf5W\x1d3@'
tRp906
ag6
(g8
S':\x17\xb4|.:R@'
tRp907
ag11
aa(lp908
S'10.1251512007'
p909
ag6
(g8
S'\xc9M\xef\xf5W\x1d3@'
tRp910
ag6
(g8
S'7\x0e\x15e/:R@'
tRp911
ag11
aa(lp912
S'9.32872772217'
p913
ag6
(g8
S'\xc9M\xef\xf5W\x1d3@'
tRp914
ag6
(g8
S'3\x05vM0:R@'
tRp915
ag11
aa(lp916
S'10.112419822'
p917
ag6
(g8
S'\xc9M\xef\xf5W\x1d3@'
tRp918
ag6
(g8
S'0\xfc\xd651:R@'
tRp919
ag11
aa(lp920
S'9.54459762573'
p921
ag6
(g8
S'\xc9M\xef\xf5W\x1d3@'
tRp922
ag6
(g8
S'-\xf37\x1e2:R@'
tRp923
ag11
aa(lp924
S'9.13234710693'
p925
ag6
(g8
S'\xc9M\xef\xf5W\x1d3@'
tRp926
ag6
(g8
S'\xd8\x08\x11\xb8I:R@'
tRp927
ag11
aa(lp928
S'10.1467921816'
p929
ag6
(g8
S'\xc9M\xef\xf5W\x1d3@'
tRp930
ag6
(g8
S'\xd1\xf6\xd2\x88K:R@'
tRp931
ag11
aa(lp932
S'10.0094146729'
p933
ag6
(g8
S'\xd6:$\xdfY\x1d3@'
tRp934
ag6
(g8
S'\xd7\xc7\x85\xea\x02:R@'
tRp935
ag11
aa(lp936
S'10.0984088135'
p937
ag6
(g8
S'\xd6:$\xdfY\x1d3@'
tRp938
ag6
(g8
S'\xd4\xbe\xe6\xd2\x03:R@'
tRp939
ag11
aa(lp940
S'10.044288077'
p941
ag6
(g8
S'\xd6:$\xdfY\x1d3@'
tRp942
ag6
(g8
S'\xd0\xb5G\xbb\x04:R@'
tRp943
ag11
aa(lp944
S'9.57772996691'
p945
ag6
(g8
S'\xd6:$\xdfY\x1d3@'
tRp946
ag6
(g8
S'\xcd\xac\xa8\xa3\x05:R@'
tRp947
ag11
aa(lp948
S'10.1806030273'
p949
ag6
(g8
S'\xd6:$\xdfY\x1d3@'
tRp950
ag6
(g8
S'\xc6\x9ajt\x07:R@'
tRp951
ag11
aa(lp952
S'9.61978759766'
p953
ag6
(g8
S'\xd6:$\xdfY\x1d3@'
tRp954
ag6
(g8
S'\xc3\x91\xcb\\\x08:R@'
tRp955
ag11
aa(lp956
S'10.4111684163'
p957
ag6
(g8
S'\xd6:$\xdfY\x1d3@'
tRp958
ag6
(g8
S'\x82\xdd^\x84\x1a:R@'
tRp959
ag11
aa(lp960
S'10.2186889648'
p961
ag6
(g8
S'\xd6:$\xdfY\x1d3@'
tRp962
ag6
(g8
S'\x7f\xd4\xbfl\x1b:R@'
tRp963
ag11
aa(lp964
S'9.56190490723'
p965
ag6
(g8
S'\xd6:$\xdfY\x1d3@'
tRp966
ag6
(g8
S'QV\r"(:R@'
tRp967
ag11
aa(lp968
S'10.9088775635'
p969
ag6
(g8
S'\xd6:$\xdfY\x1d3@'
tRp970
ag6
(g8
S'NMn\n):R@'
tRp971
ag11
aa(lp972
S'10.7586364746'
p973
ag6
(g8
S'\xd6:$\xdfY\x1d3@'
tRp974
ag6
(g8
S'JD\xcf\xf2):R@'
tRp975
ag11
aa(lp976
S'9.55158996582'
p977
ag6
(g8
S'\xd6:$\xdfY\x1d3@'
tRp978
ag6
(g8
S'G;0\xdb*:R@'
tRp979
ag11
aa(lp980
S'9.47343444824'
p981
ag6
(g8
S'\xd6:$\xdfY\x1d3@'
tRp982
ag6
(g8
S'D2\x91\xc3+:R@'
tRp983
ag11
aa(lp984
S'9.51112365723'
p985
ag6
(g8
S'\xd6:$\xdfY\x1d3@'
tRp986
ag6
(g8
S'@)\xf2\xab,:R@'
tRp987
ag11
aa(lp988
S'7.87699890137'
p989
ag6
(g8
S'\xd6:$\xdfY\x1d3@'
tRp990
ag6
(g8
S'= S\x94-:R@'
tRp991
ag11
aa(lp992
S'9.99533874512'
p993
ag6
(g8
S'\xd6:$\xdfY\x1d3@'
tRp994
ag6
(g8
S'-\xf37\x1e2:R@'
tRp995
ag11
aa(lp996
S'10.0177701994'
p997
ag6
(g8
S'\xd6:$\xdfY\x1d3@'
tRp998
ag6
(g8
S'*\xea\x98\x063:R@'
tRp999
ag11
aa(lp1000
S'3.0484161377'
p1001
ag6
(g8
S'\xd6:$\xdfY\x1d3@'
tRp1002
ag6
(g8
S'&\xe1\xf9\xee3:R@'
tRp1003
ag11
aa(lp1004
S'10.1486663818'
p1005
ag6
(g8
S'\xd6:$\xdfY\x1d3@'
tRp1006
ag6
(g8
S'\xd8\x08\x11\xb8I:R@'
tRp1007
ag11
aa(lp1008
S'10.0301997973'
p1009
ag6
(g8
S'\xd6:$\xdfY\x1d3@'
tRp1010
ag6
(g8
S'\xd1\xf6\xd2\x88K:R@'
tRp1011
ag11
aa(lp1012
S'10.1068756104'
p1013
ag6
(g8
S'\xd6:$\xdfY\x1d3@'
tRp1014
ag6
(g8
S'\xce\xed3qL:R@'
tRp1015
ag11
aa(lp1016
S'9.85568237305'
p1017
ag6
(g8
S"\xe3'Y\xc8[\x1d3@"
tRp1018
ag6
(g8
S'\xda\xd0$\x02\x02:R@'
tRp1019
ag11
aa(lp1020
S'9.91473657945'
p1021
ag6
(g8
S"\xe3'Y\xc8[\x1d3@"
tRp1022
ag6
(g8
S'\xd7\xc7\x85\xea\x02:R@'
tRp1023
ag11
aa(lp1024
S'10.1117077005'
p1025
ag6
(g8
S"\xe3'Y\xc8[\x1d3@"
tRp1026
ag6
(g8
S'\xd4\xbe\xe6\xd2\x03:R@'
tRp1027
ag11
aa(lp1028
S'10.4842626398'
p1029
ag6
(g8
S"\xe3'Y\xc8[\x1d3@"
tRp1030
ag6
(g8
S'\xc6\x9ajt\x07:R@'
tRp1031
ag11
aa(lp1032
S'10.1292266846'
p1033
ag6
(g8
S"\xe3'Y\xc8[\x1d3@"
tRp1034
ag6
(g8
S'\x88\xef\x9c\xb3\x18:R@'
tRp1035
ag11
aa(lp1036
S'9.98494974772'
p1037
ag6
(g8
S"\xe3'Y\xc8[\x1d3@"
tRp1038
ag6
(g8
S'\x85\xe6\xfd\x9b\x19:R@'
tRp1039
ag11
aa(lp1040
S'9.92292785645'
p1041
ag6
(g8
S"\xe3'Y\xc8[\x1d3@"
tRp1042
ag6
(g8
S'G;0\xdb*:R@'
tRp1043
ag11
aa(lp1044
S'10.2204742432'
p1045
ag6
(g8
S"\xe3'Y\xc8[\x1d3@"
tRp1046
ag6
(g8
S'D2\x91\xc3+:R@'
tRp1047
ag11
aa(lp1048
S'9.33711853027'
p1049
ag6
(g8
S"\xe3'Y\xc8[\x1d3@"
tRp1050
ag6
(g8
S'@)\xf2\xab,:R@'
tRp1051
ag11
aa(lp1052
S'9.24666442871'
p1053
ag6
(g8
S"\xe3'Y\xc8[\x1d3@"
tRp1054
ag6
(g8
S'= S\x94-:R@'
tRp1055
ag11
aa(lp1056
S'9.59046936035'
p1057
ag6
(g8
S"\xe3'Y\xc8[\x1d3@"
tRp1058
ag6
(g8
S':\x17\xb4|.:R@'
tRp1059
ag11
aa(lp1060
S'10.0035629272'
p1061
ag6
(g8
S"\xe3'Y\xc8[\x1d3@"
tRp1062
ag6
(g8
S'7\x0e\x15e/:R@'
tRp1063
ag11
aa(lp1064
S'6.5447845459'
p1065
ag6
(g8
S"\xe3'Y\xc8[\x1d3@"
tRp1066
ag6
(g8
S'&\xe1\xf9\xee3:R@'
tRp1067
ag11
aa(lp1068
S'10.7695465088'
p1069
ag6
(g8
S"\xe3'Y\xc8[\x1d3@"
tRp1070
ag6
(g8
S'\xd8\x08\x11\xb8I:R@'
tRp1071
ag11
aa(lp1072
S'9.90048008223'
p1073
ag6
(g8
S"\xe3'Y\xc8[\x1d3@"
tRp1074
ag6
(g8
S'\xce\xed3qL:R@'
tRp1075
ag11
aa(lp1076
S'10.9429168701'
p1077
ag6
(g8
S"\xe3'Y\xc8[\x1d3@"
tRp1078
ag6
(g8
S'\xcb\xe4\x94YM:R@'
tRp1079
ag11
aa(lp1080
S'10.086807251'
p1081
ag6
(g8
S'\xf1\x14\x8e\xb1]\x1d3@'
tRp1082
ag6
(g8
S'\xdd\xd9\xc3\x19\x01:R@'
tRp1083
ag11
aa(lp1084
S'9.24944152832'
p1085
ag6
(g8
S'\xf1\x14\x8e\xb1]\x1d3@'
tRp1086
ag6
(g8
S'\xda\xd0$\x02\x02:R@'
tRp1087
ag11
aa(lp1088
S'9.65815214677'
p1089
ag6
(g8
S'\xf1\x14\x8e\xb1]\x1d3@'
tRp1090
ag6
(g8
S'\xd7\xc7\x85\xea\x02:R@'
tRp1091
ag11
aa(lp1092
S'10.1382191976'
p1093
ag6
(g8
S'\xf1\x14\x8e\xb1]\x1d3@'
tRp1094
ag6
(g8
S'\xd4\xbe\xe6\xd2\x03:R@'
tRp1095
ag11
aa(lp1096
S'9.69475228446'
p1097
ag6
(g8
S'\xf1\x14\x8e\xb1]\x1d3@'
tRp1098
ag6
(g8
S'\xca\xa3\t\x8c\x06:R@'
tRp1099
ag11
aa(lp1100
S'10.2847442627'
p1101
ag6
(g8
S'\xf1\x14\x8e\xb1]\x1d3@'
tRp1102
ag6
(g8
S'\xc6\x9ajt\x07:R@'
tRp1103
ag11
aa(lp1104
S'10.450894165'
p1105
ag6
(g8
S'\xf1\x14\x8e\xb1]\x1d3@'
tRp1106
ag6
(g8
S'\x8c\xf8;\xcb\x17:R@'
tRp1107
ag11
aa(lp1108
S'9.91300964355'
p1109
ag6
(g8
S'\xf1\x14\x8e\xb1]\x1d3@'
tRp1110
ag6
(g8
S'\x88\xef\x9c\xb3\x18:R@'
tRp1111
ag11
aa(lp1112
S'10.311920166'
p1113
ag6
(g8
S'\xf1\x14\x8e\xb1]\x1d3@'
tRp1114
ag6
(g8
S'= S\x94-:R@'
tRp1115
ag11
aa(lp1116
S'10.8005706787'
p1117
ag6
(g8
S'\xf1\x14\x8e\xb1]\x1d3@'
tRp1118
ag6
(g8
S':\x17\xb4|.:R@'
tRp1119
ag11
aa(lp1120
S'9.29827880859'
p1121
ag6
(g8
S'\xf1\x14\x8e\xb1]\x1d3@'
tRp1122
ag6
(g8
S'7\x0e\x15e/:R@'
tRp1123
ag11
aa(lp1124
S'9.51255187988'
p1125
ag6
(g8
S'\xf1\x14\x8e\xb1]\x1d3@'
tRp1126
ag6
(g8
S'3\x05vM0:R@'
tRp1127
ag11
aa(lp1128
S'9.59066772461'
p1129
ag6
(g8
S'\xf1\x14\x8e\xb1]\x1d3@'
tRp1130
ag6
(g8
S'0\xfc\xd651:R@'
tRp1131
ag11
aa(lp1132
S'10.3906707764'
p1133
ag6
(g8
S'\xf1\x14\x8e\xb1]\x1d3@'
tRp1134
ag6
(g8
S'-\xf37\x1e2:R@'
tRp1135
ag11
aa(lp1136
S'10.2478485107'
p1137
ag6
(g8
S'\xf1\x14\x8e\xb1]\x1d3@'
tRp1138
ag6
(g8
S'\xd8\x08\x11\xb8I:R@'
tRp1139
ag11
aa(lp1140
S'9.88953653971'
p1141
ag6
(g8
S'\xf1\x14\x8e\xb1]\x1d3@'
tRp1142
ag6
(g8
S'\xcb\xe4\x94YM:R@'
tRp1143
ag11
aa(lp1144
S'9.98991830008'
p1145
ag6
(g8
S'\xfe\x01\xc3\x9a_\x1d3@'
tRp1146
ag6
(g8
S'\xe4\xeb\x01I\xff9R@'
tRp1147
ag11
aa(lp1148
S'10.197265625'
p1149
ag6
(g8
S'\xfe\x01\xc3\x9a_\x1d3@'
tRp1150
ag6
(g8
S'\xe1\xe2b1\x00:R@'
tRp1151
ag11
aa(lp1152
S'10.1207617509'
p1153
ag6
(g8
S'\xfe\x01\xc3\x9a_\x1d3@'
tRp1154
ag6
(g8
S'\xdd\xd9\xc3\x19\x01:R@'
tRp1155
ag11
aa(lp1156
S'9.69764953613'
p1157
ag6
(g8
S'\xfe\x01\xc3\x9a_\x1d3@'
tRp1158
ag6
(g8
S'\xda\xd0$\x02\x02:R@'
tRp1159
ag11
aa(lp1160
S'10.0759328206'
p1161
ag6
(g8
S'\xfe\x01\xc3\x9a_\x1d3@'
tRp1162
ag6
(g8
S'\xd4\xbe\xe6\xd2\x03:R@'
tRp1163
ag11
aa(lp1164
S'9.96077575684'
p1165
ag6
(g8
S'\xfe\x01\xc3\x9a_\x1d3@'
tRp1166
ag6
(g8
S'\xca\xa3\t\x8c\x06:R@'
tRp1167
ag11
aa(lp1168
S'9.69696262905'
p1169
ag6
(g8
S'\xfe\x01\xc3\x9a_\x1d3@'
tRp1170
ag6
(g8
S'\x8f\x01\xdb\xe2\x16:R@'
tRp1171
ag11
aa(lp1172
S'9.9083480835'
p1173
ag6
(g8
S'\xfe\x01\xc3\x9a_\x1d3@'
tRp1174
ag6
(g8
S'\x8c\xf8;\xcb\x17:R@'
tRp1175
ag11
aa(lp1176
S'10.1002655029'
p1177
ag6
(g8
S'\xfe\x01\xc3\x9a_\x1d3@'
tRp1178
ag6
(g8
S'3\x05vM0:R@'
tRp1179
ag11
aa(lp1180
S'10.0843963623'
p1181
ag6
(g8
S'\xfe\x01\xc3\x9a_\x1d3@'
tRp1182
ag6
(g8
S'0\xfc\xd651:R@'
tRp1183
ag11
aa(lp1184
S'9.4952545166'
p1185
ag6
(g8
S'\xfe\x01\xc3\x9a_\x1d3@'
tRp1186
ag6
(g8
S'-\xf37\x1e2:R@'
tRp1187
ag11
aa(lp1188
S'9.54782104492'
p1189
ag6
(g8
S'\xfe\x01\xc3\x9a_\x1d3@'
tRp1190
ag6
(g8
S'*\xea\x98\x063:R@'
tRp1191
ag11
aa(lp1192
S'10.1585845947'
p1193
ag6
(g8
S'\xfe\x01\xc3\x9a_\x1d3@'
tRp1194
ag6
(g8
S'&\xe1\xf9\xee3:R@'
tRp1195
ag11
aa(lp1196
S'8.63752746582'
p1197
ag6
(g8
S'\xfe\x01\xc3\x9a_\x1d3@'
tRp1198
ag6
(g8
S'#\xd8Z\xd74:R@'
tRp1199
ag11
aa(lp1200
S'9.62538146973'
p1201
ag6
(g8
S'\xfe\x01\xc3\x9a_\x1d3@'
tRp1202
ag6
(g8
S'\xd8\x08\x11\xb8I:R@'
tRp1203
ag11
aa(lp1204
S'10.1387481689'
p1205
ag6
(g8
S'\xfe\x01\xc3\x9a_\x1d3@'
tRp1206
ag6
(g8
S'\xcb\xe4\x94YM:R@'
tRp1207
ag11
aa(lp1208
S'9.87551879883'
p1209
ag6
(g8
S'\xfe\x01\xc3\x9a_\x1d3@'
tRp1210
ag6
(g8
S'\xc7\xdb\xf5AN:R@'
tRp1211
ag11
aa(lp1212
S'10.0057307652'
p1213
ag6
(g8
S'\x0b\xef\xf7\x83a\x1d3@'
tRp1214
ag6
(g8
S'\xe7\xf4\xa0`\xfe9R@'
tRp1215
ag11
aa(lp1216
S'9.06667436872'
p1217
ag6
(g8
S'\x0b\xef\xf7\x83a\x1d3@'
tRp1218
ag6
(g8
S'\xe4\xeb\x01I\xff9R@'
tRp1219
ag11
aa(lp1220
S'10.0385330488'
p1221
ag6
(g8
S'\x0b\xef\xf7\x83a\x1d3@'
tRp1222
ag6
(g8
S'\xe1\xe2b1\x00:R@'
tRp1223
ag11
aa(lp1224
S'9.99057542956'
p1225
ag6
(g8
S'\x0b\xef\xf7\x83a\x1d3@'
tRp1226
ag6
(g8
S'\xdd\xd9\xc3\x19\x01:R@'
tRp1227
ag11
aa(lp1228
S'11.0250396729'
p1229
ag6
(g8
S'\x0b\xef\xf7\x83a\x1d3@'
tRp1230
ag6
(g8
S'\xd4\xbe\xe6\xd2\x03:R@'
tRp1231
ag11
aa(lp1232
S'9.94896316528'
p1233
ag6
(g8
S'\x0b\xef\xf7\x83a\x1d3@'
tRp1234
ag6
(g8
S'\xd0\xb5G\xbb\x04:R@'
tRp1235
ag11
aa(lp1236
S'9.88538291238'
p1237
ag6
(g8
S'\x0b\xef\xf7\x83a\x1d3@'
tRp1238
ag6
(g8
S'\xcd\xac\xa8\xa3\x05:R@'
tRp1239
ag11
aa(lp1240
S'10.4844309489'
p1241
ag6
(g8
S'\x0b\xef\xf7\x83a\x1d3@'
tRp1242
ag6
(g8
S'\x92\nz\xfa\x15:R@'
tRp1243
ag11
aa(lp1244
S'10.8298492432'
p1245
ag6
(g8
S'\x0b\xef\xf7\x83a\x1d3@'
tRp1246
ag6
(g8
S'\x8f\x01\xdb\xe2\x16:R@'
tRp1247
ag11
aa(lp1248
S'10.7469329834'
p1249
ag6
(g8
S'\x0b\xef\xf7\x83a\x1d3@'
tRp1250
ag6
(g8
S'-\xf37\x1e2:R@'
tRp1251
ag11
aa(lp1252
S'10.9698944092'
p1253
ag6
(g8
S'\x0b\xef\xf7\x83a\x1d3@'
tRp1254
ag6
(g8
S'*\xea\x98\x063:R@'
tRp1255
ag11
aa(lp1256
S'10.6091548375'
p1257
ag6
(g8
S'\x0b\xef\xf7\x83a\x1d3@'
tRp1258
ag6
(g8
S'&\xe1\xf9\xee3:R@'
tRp1259
ag11
aa(lp1260
S'9.33711853027'
p1261
ag6
(g8
S'\x0b\xef\xf7\x83a\x1d3@'
tRp1262
ag6
(g8
S'#\xd8Z\xd74:R@'
tRp1263
ag11
aa(lp1264
S'9.56170654297'
p1265
ag6
(g8
S'\x0b\xef\xf7\x83a\x1d3@'
tRp1266
ag6
(g8
S' \xcf\xbb\xbf5:R@'
tRp1267
ag11
aa(lp1268
S'9.18620300293'
p1269
ag6
(g8
S'\x0b\xef\xf7\x83a\x1d3@'
tRp1270
ag6
(g8
S'\x1c\xc6\x1c\xa86:R@'
tRp1271
ag11
aa(lp1272
S'10.4632720947'
p1273
ag6
(g8
S'\x0b\xef\xf7\x83a\x1d3@'
tRp1274
ag6
(g8
S'\xd8\x08\x11\xb8I:R@'
tRp1275
ag11
aa(lp1276
S'9.65533447266'
p1277
ag6
(g8
S'\x0b\xef\xf7\x83a\x1d3@'
tRp1278
ag6
(g8
S'\xc7\xdb\xf5AN:R@'
tRp1279
ag11
aa(lp1280
S'10.0523564587'
p1281
ag6
(g8
S'\x19\xdc,mc\x1d3@'
tRp1282
ag6
(g8
S'\xea\xfd?x\xfd9R@'
tRp1283
ag11
aa(lp1284
S'9.74011535645'
p1285
ag6
(g8
S'\x19\xdc,mc\x1d3@'
tRp1286
ag6
(g8
S'\xe4\xeb\x01I\xff9R@'
tRp1287
ag11
aa(lp1288
S'10.0434063721'
p1289
ag6
(g8
S'\x19\xdc,mc\x1d3@'
tRp1290
ag6
(g8
S'\xe1\xe2b1\x00:R@'
tRp1291
ag11
aa(lp1292
S'9.93020899156'
p1293
ag6
(g8
S'\x19\xdc,mc\x1d3@'
tRp1294
ag6
(g8
S'\xd0\xb5G\xbb\x04:R@'
tRp1295
ag11
aa(lp1296
S'9.62895202637'
p1297
ag6
(g8
S'\x19\xdc,mc\x1d3@'
tRp1298
ag6
(g8
S'\xcd\xac\xa8\xa3\x05:R@'
tRp1299
ag11
aa(lp1300
S'8.80415344238'
p1301
ag6
(g8
S'\x19\xdc,mc\x1d3@'
tRp1302
ag6
(g8
S'\x99\x1c\xb8)\x14:R@'
tRp1303
ag11
aa(lp1304
S'10.0192006429'
p1305
ag6
(g8
S'\x19\xdc,mc\x1d3@'
tRp1306
ag6
(g8
S'\x95\x13\x19\x12\x15:R@'
tRp1307
ag11
aa(lp1308
S'10.6629852295'
p1309
ag6
(g8
S'\x19\xdc,mc\x1d3@'
tRp1310
ag6
(g8
S' \xcf\xbb\xbf5:R@'
tRp1311
ag11
aa(lp1312
S'9.7313079834'
p1313
ag6
(g8
S'\x19\xdc,mc\x1d3@'
tRp1314
ag6
(g8
S'\x1c\xc6\x1c\xa86:R@'
tRp1315
ag11
aa(lp1316
S'9.66703796387'
p1317
ag6
(g8
S'\x19\xdc,mc\x1d3@'
tRp1318
ag6
(g8
S'\x19\xbd}\x907:R@'
tRp1319
ag11
aa(lp1320
S'8.77360534668'
p1321
ag6
(g8
S'\x19\xdc,mc\x1d3@'
tRp1322
ag6
(g8
S'\x16\xb4\xdex8:R@'
tRp1323
ag11
aa(lp1324
S'9.09931945801'
p1325
ag6
(g8
S'\x19\xdc,mc\x1d3@'
tRp1326
ag6
(g8
S'\xd8\x08\x11\xb8I:R@'
tRp1327
ag11
aa(lp1328
S'10.0199279785'
p1329
ag6
(g8
S'\x19\xdc,mc\x1d3@'
tRp1330
ag6
(g8
S'\xc7\xdb\xf5AN:R@'
tRp1331
ag11
aa(lp1332
S'9.20953063965'
p1333
ag6
(g8
S'\x19\xdc,mc\x1d3@'
tRp1334
ag6
(g8
S'\xc4\xd2V*O:R@'
tRp1335
ag11
aa(lp1336
S'10.2398057417'
p1337
ag6
(g8
S'&\xc9aVe\x1d3@'
tRp1338
ag6
(g8
S'\xea\xfd?x\xfd9R@'
tRp1339
ag11
aa(lp1340
S'10.1425367083'
p1341
ag6
(g8
S'&\xc9aVe\x1d3@'
tRp1342
ag6
(g8
S'\xe4\xeb\x01I\xff9R@'
tRp1343
ag11
aa(lp1344
S'9.15882873535'
p1345
ag6
(g8
S'&\xc9aVe\x1d3@'
tRp1346
ag6
(g8
S'\xd4\xbe\xe6\xd2\x03:R@'
tRp1347
ag11
aa(lp1348
S'10.6552886963'
p1349
ag6
(g8
S'&\xc9aVe\x1d3@'
tRp1350
ag6
(g8
S'\xd0\xb5G\xbb\x04:R@'
tRp1351
ag11
aa(lp1352
S'10.1193084717'
p1353
ag6
(g8
S'&\xc9aVe\x1d3@'
tRp1354
ag6
(g8
S'\xcd\xac\xa8\xa3\x05:R@'
tRp1355
ag11
aa(lp1356
S'10.2383270264'
p1357
ag6
(g8
S'&\xc9aVe\x1d3@'
tRp1358
ag6
(g8
S'\x9c%WA\x13:R@'
tRp1359
ag11
aa(lp1360
S'10.1613616943'
p1361
ag6
(g8
S'&\xc9aVe\x1d3@'
tRp1362
ag6
(g8
S'\x99\x1c\xb8)\x14:R@'
tRp1363
ag11
aa(lp1364
S'4.86701965332'
p1365
ag6
(g8
S'&\xc9aVe\x1d3@'
tRp1366
ag6
(g8
S' \xcf\xbb\xbf5:R@'
tRp1367
ag11
aa(lp1368
S'10.3821411133'
p1369
ag6
(g8
S'&\xc9aVe\x1d3@'
tRp1370
ag6
(g8
S'\x19\xbd}\x907:R@'
tRp1371
ag11
aa(lp1372
S'10.2689743042'
p1373
ag6
(g8
S'&\xc9aVe\x1d3@'
tRp1374
ag6
(g8
S'\x16\xb4\xdex8:R@'
tRp1375
ag11
aa(lp1376
S'9.24711886319'
p1377
ag6
(g8
S'&\xc9aVe\x1d3@'
tRp1378
ag6
(g8
S'\x13\xab?a9:R@'
tRp1379
ag11
aa(lp1380
S'9.69956970215'
p1381
ag6
(g8
S'&\xc9aVe\x1d3@'
tRp1382
ag6
(g8
S'\x0f\xa2\xa0I::R@'
tRp1383
ag11
aa(lp1384
S'10.2966461182'
p1385
ag6
(g8
S'&\xc9aVe\x1d3@'
tRp1386
ag6
(g8
S'\xd8\x08\x11\xb8I:R@'
tRp1387
ag11
aa(lp1388
S'9.66114967748'
p1389
ag6
(g8
S'&\xc9aVe\x1d3@'
tRp1390
ag6
(g8
S'\xc4\xd2V*O:R@'
tRp1391
ag11
aa(lp1392
S'10.0691838758'
p1393
ag6
(g8
S'3\xb6\x96?g\x1d3@'
tRp1394
ag6
(g8
S'\xea\xfd?x\xfd9R@'
tRp1395
ag11
aa(lp1396
S'10.0001923608'
p1397
ag6
(g8
S'3\xb6\x96?g\x1d3@'
tRp1398
ag6
(g8
S'\xe7\xf4\xa0`\xfe9R@'
tRp1399
ag11
aa(lp1400
S'9.97865017978'
p1401
ag6
(g8
S'3\xb6\x96?g\x1d3@'
tRp1402
ag6
(g8
S'\xe4\xeb\x01I\xff9R@'
tRp1403
ag11
aa(lp1404
S'7.80023193359'
p1405
ag6
(g8
S'3\xb6\x96?g\x1d3@'
tRp1406
ag6
(g8
S'\xd4\xbe\xe6\xd2\x03:R@'
tRp1407
ag11
aa(lp1408
S'10.5884796143'
p1409
ag6
(g8
S'3\xb6\x96?g\x1d3@'
tRp1410
ag6
(g8
S'\xcd\xac\xa8\xa3\x05:R@'
tRp1411
ag11
aa(lp1412
S'9.54816818237'
p1413
ag6
(g8
S'3\xb6\x96?g\x1d3@'
tRp1414
ag6
(g8
S'\x9f.\xf6X\x12:R@'
tRp1415
ag11
aa(lp1416
S'10.6492385864'
p1417
ag6
(g8
S'3\xb6\x96?g\x1d3@'
tRp1418
ag6
(g8
S'\x9c%WA\x13:R@'
tRp1419
ag11
aa(lp1420
S'9.63609313965'
p1421
ag6
(g8
S'3\xb6\x96?g\x1d3@'
tRp1422
ag6
(g8
S' \xcf\xbb\xbf5:R@'
tRp1423
ag11
aa(lp1424
S'10.444229126'
p1425
ag6
(g8
S'3\xb6\x96?g\x1d3@'
tRp1426
ag6
(g8
S'\x13\xab?a9:R@'
tRp1427
ag11
aa(lp1428
S'10.8662689209'
p1429
ag6
(g8
S'3\xb6\x96?g\x1d3@'
tRp1430
ag6
(g8
S'\x0f\xa2\xa0I::R@'
tRp1431
ag11
aa(lp1432
S'10.0158705278'
p1433
ag6
(g8
S'3\xb6\x96?g\x1d3@'
tRp1434
ag6
(g8
S'\x0c\x99\x012;:R@'
tRp1435
ag11
aa(lp1436
S'10.0453847249'
p1437
ag6
(g8
S'3\xb6\x96?g\x1d3@'
tRp1438
ag6
(g8
S'\t\x90b\x1a<:R@'
tRp1439
ag11
aa(lp1440
S'10.623550415'
p1441
ag6
(g8
S'3\xb6\x96?g\x1d3@'
tRp1442
ag6
(g8
S'\x06\x87\xc3\x02=:R@'
tRp1443
ag11
aa(lp1444
S'10.1165313721'
p1445
ag6
(g8
S'3\xb6\x96?g\x1d3@'
tRp1446
ag6
(g8
S'\xd8\x08\x11\xb8I:R@'
tRp1447
ag11
aa(lp1448
S'11.0321807861'
p1449
ag6
(g8
S'3\xb6\x96?g\x1d3@'
tRp1450
ag6
(g8
S'\xc4\xd2V*O:R@'
tRp1451
ag11
aa(lp1452
S'10.8811016083'
p1453
ag6
(g8
S'3\xb6\x96?g\x1d3@'
tRp1454
ag6
(g8
S'\xc1\xc9\xb7\x12P:R@'
tRp1455
ag11
aa(lp1456
S'9.85792836835'
p1457
ag6
(g8
S'A\xa3\xcb(i\x1d3@'
tRp1458
ag6
(g8
S'\xee\x06\xdf\x8f\xfc9R@'
tRp1459
ag11
aa(lp1460
S'10.0538482666'
p1461
ag6
(g8
S'A\xa3\xcb(i\x1d3@'
tRp1462
ag6
(g8
S'\xea\xfd?x\xfd9R@'
tRp1463
ag11
aa(lp1464
S'10.0357950311'
p1465
ag6
(g8
S'A\xa3\xcb(i\x1d3@'
tRp1466
ag6
(g8
S'\xe7\xf4\xa0`\xfe9R@'
tRp1467
ag11
aa(lp1468
S'8.79415588379'
p1469
ag6
(g8
S'A\xa3\xcb(i\x1d3@'
tRp1470
ag6
(g8
S'\xcd\xac\xa8\xa3\x05:R@'
tRp1471
ag11
aa(lp1472
S'10.5215911865'
p1473
ag6
(g8
S'A\xa3\xcb(i\x1d3@'
tRp1474
ag6
(g8
S'\xa6@4\x88\x10:R@'
tRp1475
ag11
aa(lp1476
S'10.1891326904'
p1477
ag6
(g8
S'A\xa3\xcb(i\x1d3@'
tRp1478
ag6
(g8
S'\xa37\x95p\x11:R@'
tRp1479
ag11
aa(lp1480
S'10.4977874756'
p1481
ag6
(g8
S'A\xa3\xcb(i\x1d3@'
tRp1482
ag6
(g8
S'\x9f.\xf6X\x12:R@'
tRp1483
ag11
aa(lp1484
S'6.01396179199'
p1485
ag6
(g8
S'A\xa3\xcb(i\x1d3@'
tRp1486
ag6
(g8
S' \xcf\xbb\xbf5:R@'
tRp1487
ag11
aa(lp1488
S'9.50933837891'
p1489
ag6
(g8
S'A\xa3\xcb(i\x1d3@'
tRp1490
ag6
(g8
S'\t\x90b\x1a<:R@'
tRp1491
ag11
aa(lp1492
S'9.38085243919'
p1493
ag6
(g8
S'A\xa3\xcb(i\x1d3@'
tRp1494
ag6
(g8
S'\x02~$\xeb=:R@'
tRp1495
ag11
aa(lp1496
S'5.64882278442'
p1497
ag6
(g8
S'A\xa3\xcb(i\x1d3@'
tRp1498
ag6
(g8
S'\xfft\x85\xd3>:R@'
tRp1499
ag11
aa(lp1500
S'10.6080780029'
p1501
ag6
(g8
S'A\xa3\xcb(i\x1d3@'
tRp1502
ag6
(g8
S'\xd8\x08\x11\xb8I:R@'
tRp1503
ag11
aa(lp1504
S'5.3488067627'
p1505
ag6
(g8
S'A\xa3\xcb(i\x1d3@'
tRp1506
ag6
(g8
S'\xc1\xc9\xb7\x12P:R@'
tRp1507
ag11
aa(lp1508
S'8.35942077637'
p1509
ag6
(g8
S'A\xa3\xcb(i\x1d3@'
tRp1510
ag6
(g8
S'\xbe\xc0\x18\xfbP:R@'
tRp1511
ag11
aa(lp1512
S'10.0078904001'
p1513
ag6
(g8
S'N\x90\x00\x12k\x1d3@'
tRp1514
ag6
(g8
S'\xee\x06\xdf\x8f\xfc9R@'
tRp1515
ag11
aa(lp1516
S'9.91799974442'
p1517
ag6
(g8
S'N\x90\x00\x12k\x1d3@'
tRp1518
ag6
(g8
S'\xea\xfd?x\xfd9R@'
tRp1519
ag11
aa(lp1520
S'1.72969055176'
p1521
ag6
(g8
S'N\x90\x00\x12k\x1d3@'
tRp1522
ag6
(g8
S'\xda\xd0$\x02\x02:R@'
tRp1523
ag11
aa(lp1524
S'7.38003031413'
p1525
ag6
(g8
S'N\x90\x00\x12k\x1d3@'
tRp1526
ag6
(g8
S'\xd7\xc7\x85\xea\x02:R@'
tRp1527
ag11
aa(lp1528
S'10.010075887'
p1529
ag6
(g8
S'N\x90\x00\x12k\x1d3@'
tRp1530
ag6
(g8
S'\xca\xa3\t\x8c\x06:R@'
tRp1531
ag11
aa(lp1532
S'10.0161590576'
p1533
ag6
(g8
S'N\x90\x00\x12k\x1d3@'
tRp1534
ag6
(g8
S'\xa9I\xd3\x9f\x0f:R@'
tRp1535
ag11
aa(lp1536
S'10.4541969299'
p1537
ag6
(g8
S'N\x90\x00\x12k\x1d3@'
tRp1538
ag6
(g8
S'\xa6@4\x88\x10:R@'
tRp1539
ag11
aa(lp1540
S'7.07778930664'
p1541
ag6
(g8
S'N\x90\x00\x12k\x1d3@'
tRp1542
ag6
(g8
S' \xcf\xbb\xbf5:R@'
tRp1543
ag11
aa(lp1544
S'10.331161499'
p1545
ag6
(g8
S'N\x90\x00\x12k\x1d3@'
tRp1546
ag6
(g8
S'\x1c\xc6\x1c\xa86:R@'
tRp1547
ag11
aa(lp1548
S'7.6062857888'
p1549
ag6
(g8
S'N\x90\x00\x12k\x1d3@'
tRp1550
ag6
(g8
S'\xfck\xe6\xbb?:R@'
tRp1551
ag11
aa(lp1552
S'10.4730911255'
p1553
ag6
(g8
S'N\x90\x00\x12k\x1d3@'
tRp1554
ag6
(g8
S'\xf8bG\xa4@:R@'
tRp1555
ag11
aa(lp1556
S'8.86485290527'
p1557
ag6
(g8
S'N\x90\x00\x12k\x1d3@'
tRp1558
ag6
(g8
S'\xd8\x08\x11\xb8I:R@'
tRp1559
ag11
aa(lp1560
S'10.0288171768'
p1561
ag6
(g8
S'[}5\xfbl\x1d3@'
tRp1562
ag6
(g8
S'\xee\x06\xdf\x8f\xfc9R@'
tRp1563
ag11
aa(lp1564
S'9.88521385193'
p1565
ag6
(g8
S'[}5\xfbl\x1d3@'
tRp1566
ag6
(g8
S'\xea\xfd?x\xfd9R@'
tRp1567
ag11
aa(lp1568
S'9.18403902921'
p1569
ag6
(g8
S'[}5\xfbl\x1d3@'
tRp1570
ag6
(g8
S'\xda\xd0$\x02\x02:R@'
tRp1571
ag11
aa(lp1572
S'10.3200035095'
p1573
ag6
(g8
S'[}5\xfbl\x1d3@'
tRp1574
ag6
(g8
S'\xca\xa3\t\x8c\x06:R@'
tRp1575
ag11
aa(lp1576
S'10.1159759521'
p1577
ag6
(g8
S'[}5\xfbl\x1d3@'
tRp1578
ag6
(g8
S'\xacRr\xb7\x0e:R@'
tRp1579
ag11
aa(lp1580
S'10.3543701172'
p1581
ag6
(g8
S'[}5\xfbl\x1d3@'
tRp1582
ag6
(g8
S'\xa9I\xd3\x9f\x0f:R@'
tRp1583
ag11
aa(lp1584
S'10.6779022217'
p1585
ag6
(g8
S'[}5\xfbl\x1d3@'
tRp1586
ag6
(g8
S'\x1c\xc6\x1c\xa86:R@'
tRp1587
ag11
aa(lp1588
S'9.83683776855'
p1589
ag6
(g8
S'[}5\xfbl\x1d3@'
tRp1590
ag6
(g8
S'\xf2P\tuB:R@'
tRp1591
ag11
aa(lp1592
S'8.87199401855'
p1593
ag6
(g8
S'[}5\xfbl\x1d3@'
tRp1594
ag6
(g8
S'\xefGj]C:R@'
tRp1595
ag11
aa(lp1596
S'9.06754150391'
p1597
ag6
(g8
S'[}5\xfbl\x1d3@'
tRp1598
ag6
(g8
S'\xbe\xc0\x18\xfbP:R@'
tRp1599
ag11
aa(lp1600
S'10.453453064'
p1601
ag6
(g8
S'[}5\xfbl\x1d3@'
tRp1602
ag6
(g8
S'\xba\xb7y\xe3Q:R@'
tRp1603
ag11
aa(lp1604
S'10.0768830966'
p1605
ag6
(g8
S'ijj\xe4n\x1d3@'
tRp1606
ag6
(g8
S'\xee\x06\xdf\x8f\xfc9R@'
tRp1607
ag11
aa(lp1608
S'10.9076576233'
p1609
ag6
(g8
S'ijj\xe4n\x1d3@'
tRp1610
ag6
(g8
S'\xdd\xd9\xc3\x19\x01:R@'
tRp1611
ag11
aa(lp1612
S'9.64918518066'
p1613
ag6
(g8
S'ijj\xe4n\x1d3@'
tRp1614
ag6
(g8
S'\xc6\x9ajt\x07:R@'
tRp1615
ag11
aa(lp1616
S'10.3911808559'
p1617
ag6
(g8
S'ijj\xe4n\x1d3@'
tRp1618
ag6
(g8
S'\xb0[\x11\xcf\r:R@'
tRp1619
ag11
aa(lp1620
S'9.11627960205'
p1621
ag6
(g8
S'ijj\xe4n\x1d3@'
tRp1622
ag6
(g8
S'\xacRr\xb7\x0e:R@'
tRp1623
ag11
aa(lp1624
S'9.9217376709'
p1625
ag6
(g8
S'ijj\xe4n\x1d3@'
tRp1626
ag6
(g8
S'\xefGj]C:R@'
tRp1627
ag11
aa(lp1628
S'9.49370366877'
p1629
ag6
(g8
S'ijj\xe4n\x1d3@'
tRp1630
ag6
(g8
S'\xeb>\xcbED:R@'
tRp1631
ag11
aa(lp1632
S'10.1689987183'
p1633
ag6
(g8
S'ijj\xe4n\x1d3@'
tRp1634
ag6
(g8
S'\xe85,.E:R@'
tRp1635
ag11
aa(lp1636
S'10.6260299683'
p1637
ag6
(g8
S'ijj\xe4n\x1d3@'
tRp1638
ag6
(g8
S'\xe5,\x8d\x16F:R@'
tRp1639
ag11
aa(lp1640
S'10.7885894775'
p1641
ag6
(g8
S'ijj\xe4n\x1d3@'
tRp1642
ag6
(g8
S'\xd8\x08\x11\xb8I:R@'
tRp1643
ag11
aa(lp1644
S'10.061553152'
p1645
ag6
(g8
S'ijj\xe4n\x1d3@'
tRp1646
ag6
(g8
S'\xba\xb7y\xe3Q:R@'
tRp1647
ag11
aa(lp1648
S'9.29792175293'
p1649
ag6
(g8
S'vW\x9f\xcdp\x1d3@'
tRp1650
ag6
(g8
S'\xf1\x0f~\xa7\xfb9R@'
tRp1651
ag11
aa(lp1652
S'9.97831639704'
p1653
ag6
(g8
S'vW\x9f\xcdp\x1d3@'
tRp1654
ag6
(g8
S'\xee\x06\xdf\x8f\xfc9R@'
tRp1655
ag11
aa(lp1656
S'8.70259094238'
p1657
ag6
(g8
S'vW\x9f\xcdp\x1d3@'
tRp1658
ag6
(g8
S'\xe1\xe2b1\x00:R@'
tRp1659
ag11
aa(lp1660
S'8.5558013916'
p1661
ag6
(g8
S'vW\x9f\xcdp\x1d3@'
tRp1662
ag6
(g8
S'\xdd\xd9\xc3\x19\x01:R@'
tRp1663
ag11
aa(lp1664
S'8.93070983887'
p1665
ag6
(g8
S'vW\x9f\xcdp\x1d3@'
tRp1666
ag6
(g8
S'\xc6\x9ajt\x07:R@'
tRp1667
ag11
aa(lp1668
S'10.4261118571'
p1669
ag6
(g8
S'vW\x9f\xcdp\x1d3@'
tRp1670
ag6
(g8
S'\xb3d\xb0\xe6\x0c:R@'
tRp1671
ag11
aa(lp1672
S'9.64144897461'
p1673
ag6
(g8
S'vW\x9f\xcdp\x1d3@'
tRp1674
ag6
(g8
S'\xb0[\x11\xcf\r:R@'
tRp1675
ag11
aa(lp1676
S'10.6187896729'
p1677
ag6
(g8
S'vW\x9f\xcdp\x1d3@'
tRp1678
ag6
(g8
S'\x1c\xc6\x1c\xa86:R@'
tRp1679
ag11
aa(lp1680
S'11.0651092529'
p1681
ag6
(g8
S'vW\x9f\xcdp\x1d3@'
tRp1682
ag6
(g8
S'\xe5,\x8d\x16F:R@'
tRp1683
ag11
aa(lp1684
S'9.97727966309'
p1685
ag6
(g8
S'vW\x9f\xcdp\x1d3@'
tRp1686
ag6
(g8
S'\xe2#\xee\xfeF:R@'
tRp1687
ag11
aa(lp1688
S'9.92149963379'
p1689
ag6
(g8
S'vW\x9f\xcdp\x1d3@'
tRp1690
ag6
(g8
S'\xde\x1aO\xe7G:R@'
tRp1691
ag11
aa(lp1692
S'10.3097381592'
p1693
ag6
(g8
S'vW\x9f\xcdp\x1d3@'
tRp1694
ag6
(g8
S'\xdb\x11\xb0\xcfH:R@'
tRp1695
ag11
aa(lp1696
S'10.1719741821'
p1697
ag6
(g8
S'vW\x9f\xcdp\x1d3@'
tRp1698
ag6
(g8
S'\xd8\x08\x11\xb8I:R@'
tRp1699
ag11
aa(lp1700
S'10.4961212158'
p1701
ag6
(g8
S'vW\x9f\xcdp\x1d3@'
tRp1702
ag6
(g8
S'\xba\xb7y\xe3Q:R@'
tRp1703
ag11
aa(lp1704
S'9.89463806152'
p1705
ag6
(g8
S'vW\x9f\xcdp\x1d3@'
tRp1706
ag6
(g8
S'\xb7\xae\xda\xcbR:R@'
tRp1707
ag11
aa(lp1708
S'9.76597213745'
p1709
ag6
(g8
S'\x83D\xd4\xb6r\x1d3@'
tRp1710
ag6
(g8
S'\xf1\x0f~\xa7\xfb9R@'
tRp1711
ag11
aa(lp1712
S'10.0408970002'
p1713
ag6
(g8
S'\x83D\xd4\xb6r\x1d3@'
tRp1714
ag6
(g8
S'\xee\x06\xdf\x8f\xfc9R@'
tRp1715
ag11
aa(lp1716
S'9.77545304732'
p1717
ag6
(g8
S'\x83D\xd4\xb6r\x1d3@'
tRp1718
ag6
(g8
S'\xe1\xe2b1\x00:R@'
tRp1719
ag11
aa(lp1720
S'8.98268127441'
p1721
ag6
(g8
S'\x83D\xd4\xb6r\x1d3@'
tRp1722
ag6
(g8
S'\xb9v\xee\x15\x0b:R@'
tRp1723
ag11
aa(lp1724
S'10.3699086507'
p1725
ag6
(g8
S'\x83D\xd4\xb6r\x1d3@'
tRp1726
ag6
(g8
S'\xb6mO\xfe\x0b:R@'
tRp1727
ag11
aa(lp1728
S'9.70234680176'
p1729
ag6
(g8
S'\x83D\xd4\xb6r\x1d3@'
tRp1730
ag6
(g8
S'\x19\xbd}\x907:R@'
tRp1731
ag11
aa(lp1732
S'9.1040802002'
p1733
ag6
(g8
S'\x83D\xd4\xb6r\x1d3@'
tRp1734
ag6
(g8
S'\xde\x1aO\xe7G:R@'
tRp1735
ag11
aa(lp1736
S'10.1021697998'
p1737
ag6
(g8
S'\x83D\xd4\xb6r\x1d3@'
tRp1738
ag6
(g8
S'\xdb\x11\xb0\xcfH:R@'
tRp1739
ag11
aa(lp1740
S'10.065070016'
p1741
ag6
(g8
S'\x83D\xd4\xb6r\x1d3@'
tRp1742
ag6
(g8
S'\xd8\x08\x11\xb8I:R@'
tRp1743
ag11
aa(lp1744
S'10.6926378523'
p1745
ag6
(g8
S'\x83D\xd4\xb6r\x1d3@'
tRp1746
ag6
(g8
S'\xd5\xffq\xa0J:R@'
tRp1747
ag11
aa(lp1748
S'10.0119934082'
p1749
ag6
(g8
S'\x83D\xd4\xb6r\x1d3@'
tRp1750
ag6
(g8
S'\xb7\xae\xda\xcbR:R@'
tRp1751
ag11
aa(lp1752
S'10.0654935551'
p1753
ag6
(g8
S'\x911\t\xa0t\x1d3@'
tRp1754
ag6
(g8
S'\xf1\x0f~\xa7\xfb9R@'
tRp1755
ag11
aa(lp1756
S'10.657921531'
p1757
ag6
(g8
S'\x911\t\xa0t\x1d3@'
tRp1758
ag6
(g8
S'\xea\xfd?x\xfd9R@'
tRp1759
ag11
aa(lp1760
S'9.75358145578'
p1761
ag6
(g8
S'\x911\t\xa0t\x1d3@'
tRp1762
ag6
(g8
S'\xe7\xf4\xa0`\xfe9R@'
tRp1763
ag11
aa(lp1764
S'9.50728861491'
p1765
ag6
(g8
S'\x911\t\xa0t\x1d3@'
tRp1766
ag6
(g8
S'\xe4\xeb\x01I\xff9R@'
tRp1767
ag11
aa(lp1768
S'10.8040618896'
p1769
ag6
(g8
S'\x911\t\xa0t\x1d3@'
tRp1770
ag6
(g8
S'\xe1\xe2b1\x00:R@'
tRp1771
ag11
aa(lp1772
S'9.90798441569'
p1773
ag6
(g8
S'\x911\t\xa0t\x1d3@'
tRp1774
ag6
(g8
S'\xc3\x91\xcb\\\x08:R@'
tRp1775
ag11
aa(lp1776
S'9.92483215332'
p1777
ag6
(g8
S'\x911\t\xa0t\x1d3@'
tRp1778
ag6
(g8
S'\xbd\x7f\x8d-\n:R@'
tRp1779
ag11
aa(lp1780
S'8.5962677002'
p1781
ag6
(g8
S'\x911\t\xa0t\x1d3@'
tRp1782
ag6
(g8
S'\xb9v\xee\x15\x0b:R@'
tRp1783
ag11
aa(lp1784
S'9.53373718262'
p1785
ag6
(g8
S'\x911\t\xa0t\x1d3@'
tRp1786
ag6
(g8
S'\x19\xbd}\x907:R@'
tRp1787
ag11
aa(lp1788
S'8.43162536621'
p1789
ag6
(g8
S'\x911\t\xa0t\x1d3@'
tRp1790
ag6
(g8
S'\xd8\x08\x11\xb8I:R@'
tRp1791
ag11
aa(lp1792
S'9.93618992397'
p1793
ag6
(g8
S'\x911\t\xa0t\x1d3@'
tRp1794
ag6
(g8
S'\xd5\xffq\xa0J:R@'
tRp1795
ag11
aa(lp1796
S'9.6839169589'
p1797
ag6
(g8
S'\x911\t\xa0t\x1d3@'
tRp1798
ag6
(g8
S'\xd1\xf6\xd2\x88K:R@'
tRp1799
ag11
aa(lp1800
S'10.2618927002'
p1801
ag6
(g8
S'\x911\t\xa0t\x1d3@'
tRp1802
ag6
(g8
S'\xce\xed3qL:R@'
tRp1803
ag11
aa(lp1804
S'9.86270446777'
p1805
ag6
(g8
S'\x911\t\xa0t\x1d3@'
tRp1806
ag6
(g8
S'\xcb\xe4\x94YM:R@'
tRp1807
ag11
aa(lp1808
S'9.99685160319'
p1809
ag6
(g8
S'\x911\t\xa0t\x1d3@'
tRp1810
ag6
(g8
S'\xb4\xa5;\xb4S:R@'
tRp1811
ag11
aa(lp1812
S'10.2005455549'
p1813
ag6
(g8
S'\x9e\x1e>\x89v\x1d3@'
tRp1814
ag6
(g8
S'\xf1\x0f~\xa7\xfb9R@'
tRp1815
ag11
aa(lp1816
S'10.5930023193'
p1817
ag6
(g8
S'\x9e\x1e>\x89v\x1d3@'
tRp1818
ag6
(g8
S'\xee\x06\xdf\x8f\xfc9R@'
tRp1819
ag11
aa(lp1820
S'9.64442443848'
p1821
ag6
(g8
S'\x9e\x1e>\x89v\x1d3@'
tRp1822
ag6
(g8
S'\xe7\xf4\xa0`\xfe9R@'
tRp1823
ag11
aa(lp1824
S'9.091865138'
p1825
ag6
(g8
S'\x9e\x1e>\x89v\x1d3@'
tRp1826
ag6
(g8
S'\xe4\xeb\x01I\xff9R@'
tRp1827
ag11
aa(lp1828
S'9.97325570243'
p1829
ag6
(g8
S'\x9e\x1e>\x89v\x1d3@'
tRp1830
ag6
(g8
S'\xc0\x88,E\t:R@'
tRp1831
ag11
aa(lp1832
S'9.88246154785'
p1833
ag6
(g8
S'\x9e\x1e>\x89v\x1d3@'
tRp1834
ag6
(g8
S'\x16\xb4\xdex8:R@'
tRp1835
ag11
aa(lp1836
S'10.9540252686'
p1837
ag6
(g8
S'\x9e\x1e>\x89v\x1d3@'
tRp1838
ag6
(g8
S'\xd5\xffq\xa0J:R@'
tRp1839
ag11
aa(lp1840
S'10.5340881348'
p1841
ag6
(g8
S'\x9e\x1e>\x89v\x1d3@'
tRp1842
ag6
(g8
S'\xce\xed3qL:R@'
tRp1843
ag11
aa(lp1844
S'9.74063110352'
p1845
ag6
(g8
S'\x9e\x1e>\x89v\x1d3@'
tRp1846
ag6
(g8
S'\xcb\xe4\x94YM:R@'
tRp1847
ag11
aa(lp1848
S'10.1018228631'
p1849
ag6
(g8
S'\x9e\x1e>\x89v\x1d3@'
tRp1850
ag6
(g8
S'\xc7\xdb\xf5AN:R@'
tRp1851
ag11
aa(lp1852
S'9.98960130151'
p1853
ag6
(g8
S'\x9e\x1e>\x89v\x1d3@'
tRp1854
ag6
(g8
S'\xc4\xd2V*O:R@'
tRp1855
ag11
aa(lp1856
S'10.2382193173'
p1857
ag6
(g8
S'\x9e\x1e>\x89v\x1d3@'
tRp1858
ag6
(g8
S'\xc1\xc9\xb7\x12P:R@'
tRp1859
ag11
aa(lp1860
S'10.0616082764'
p1861
ag6
(g8
S'\x9e\x1e>\x89v\x1d3@'
tRp1862
ag6
(g8
S'\xbe\xc0\x18\xfbP:R@'
tRp1863
ag11
aa(lp1864
S'9.4627442231'
p1865
ag6
(g8
S'\x9e\x1e>\x89v\x1d3@'
tRp1866
ag6
(g8
S'\xba\xb7y\xe3Q:R@'
tRp1867
ag11
aa(lp1868
S'10.3818634033'
p1869
ag6
(g8
S'\x9e\x1e>\x89v\x1d3@'
tRp1870
ag6
(g8
S'\xb4\xa5;\xb4S:R@'
tRp1871
ag11
aa(lp1872
S'10.1987263073'
p1873
ag6
(g8
S'\xab\x0bsrx\x1d3@'
tRp1874
ag6
(g8
S'\xee\x06\xdf\x8f\xfc9R@'
tRp1875
ag11
aa(lp1876
S'10.4916665213'
p1877
ag6
(g8
S'\xab\x0bsrx\x1d3@'
tRp1878
ag6
(g8
S'\xea\xfd?x\xfd9R@'
tRp1879
ag11
aa(lp1880
S'10.0562862273'
p1881
ag6
(g8
S'\xab\x0bsrx\x1d3@'
tRp1882
ag6
(g8
S'\xe7\xf4\xa0`\xfe9R@'
tRp1883
ag11
aa(lp1884
S'10.2482055664'
p1885
ag6
(g8
S'\xab\x0bsrx\x1d3@'
tRp1886
ag6
(g8
S'\xe1\xe2b1\x00:R@'
tRp1887
ag11
aa(lp1888
S'10.0298957825'
p1889
ag6
(g8
S'\xab\x0bsrx\x1d3@'
tRp1890
ag6
(g8
S'\xdd\xd9\xc3\x19\x01:R@'
tRp1891
ag11
aa(lp1892
S'4.04341125488'
p1893
ag6
(g8
S'\xab\x0bsrx\x1d3@'
tRp1894
ag6
(g8
S'\xc6\x9ajt\x07:R@'
tRp1895
ag11
aa(lp1896
S'8.47050476074'
p1897
ag6
(g8
S'\xab\x0bsrx\x1d3@'
tRp1898
ag6
(g8
S'\xc3\x91\xcb\\\x08:R@'
tRp1899
ag11
aa(lp1900
S'9.74926896529'
p1901
ag6
(g8
S'\xab\x0bsrx\x1d3@'
tRp1902
ag6
(g8
S'\xc0\x88,E\t:R@'
tRp1903
ag11
aa(lp1904
S'8.69306945801'
p1905
ag6
(g8
S'\xab\x0bsrx\x1d3@'
tRp1906
ag6
(g8
S'\x16\xb4\xdex8:R@'
tRp1907
ag11
aa(lp1908
S'10.2704620361'
p1909
ag6
(g8
S'\xab\x0bsrx\x1d3@'
tRp1910
ag6
(g8
S'\xd5\xffq\xa0J:R@'
tRp1911
ag11
aa(lp1912
S'9.5740334647'
p1913
ag6
(g8
S'\xab\x0bsrx\x1d3@'
tRp1914
ag6
(g8
S'\xc7\xdb\xf5AN:R@'
tRp1915
ag11
aa(lp1916
S'9.09376525879'
p1917
ag6
(g8
S'\xab\x0bsrx\x1d3@'
tRp1918
ag6
(g8
S'\xba\xb7y\xe3Q:R@'
tRp1919
ag11
aa(lp1920
S'9.69055020079'
p1921
ag6
(g8
S'\xab\x0bsrx\x1d3@'
tRp1922
ag6
(g8
S'\xb7\xae\xda\xcbR:R@'
tRp1923
ag11
aa(lp1924
S'8.25535888672'
p1925
ag6
(g8
S'\xab\x0bsrx\x1d3@'
tRp1926
ag6
(g8
S'\xb4\xa5;\xb4S:R@'
tRp1927
ag11
aa(lp1928
S'10.1595736222'
p1929
ag6
(g8
S'\xb9\xf8\xa7[z\x1d3@'
tRp1930
ag6
(g8
S'\xe7\xf4\xa0`\xfe9R@'
tRp1931
ag11
aa(lp1932
S'9.98090689523'
p1933
ag6
(g8
S'\xb9\xf8\xa7[z\x1d3@'
tRp1934
ag6
(g8
S'\xe4\xeb\x01I\xff9R@'
tRp1935
ag11
aa(lp1936
S'11.1350128174'
p1937
ag6
(g8
S'\xb9\xf8\xa7[z\x1d3@'
tRp1938
ag6
(g8
S'\xe1\xe2b1\x00:R@'
tRp1939
ag11
aa(lp1940
S'10.2605438232'
p1941
ag6
(g8
S'\xb9\xf8\xa7[z\x1d3@'
tRp1942
ag6
(g8
S'\xdd\xd9\xc3\x19\x01:R@'
tRp1943
ag11
aa(lp1944
S'10.3242367831'
p1945
ag6
(g8
S'\xb9\xf8\xa7[z\x1d3@'
tRp1946
ag6
(g8
S'\xda\xd0$\x02\x02:R@'
tRp1947
ag11
aa(lp1948
S'8.67362976074'
p1949
ag6
(g8
S'\xb9\xf8\xa7[z\x1d3@'
tRp1950
ag6
(g8
S'\xd7\xc7\x85\xea\x02:R@'
tRp1951
ag11
aa(lp1952
S'10.4907951355'
p1953
ag6
(g8
S'\xb9\xf8\xa7[z\x1d3@'
tRp1954
ag6
(g8
S'\xc6\x9ajt\x07:R@'
tRp1955
ag11
aa(lp1956
S'11.0875244141'
p1957
ag6
(g8
S'\xb9\xf8\xa7[z\x1d3@'
tRp1958
ag6
(g8
S'\xc0\x88,E\t:R@'
tRp1959
ag11
aa(lp1960
S'9.79676818848'
p1961
ag6
(g8
S'\xb9\xf8\xa7[z\x1d3@'
tRp1962
ag6
(g8
S'\xbd\x7f\x8d-\n:R@'
tRp1963
ag11
aa(lp1964
S'9.28419494629'
p1965
ag6
(g8
S'\xb9\xf8\xa7[z\x1d3@'
tRp1966
ag6
(g8
S'\xd5\xffq\xa0J:R@'
tRp1967
ag11
aa(lp1968
S'9.83584594727'
p1969
ag6
(g8
S'\xb9\xf8\xa7[z\x1d3@'
tRp1970
ag6
(g8
S'\xc7\xdb\xf5AN:R@'
tRp1971
ag11
aa(lp1972
S'10.0859356689'
p1973
ag6
(g8
S'\xb9\xf8\xa7[z\x1d3@'
tRp1974
ag6
(g8
S'\xb4\xa5;\xb4S:R@'
tRp1975
ag11
aa(lp1976
S'10.157989502'
p1977
ag6
(g8
S'\xb9\xf8\xa7[z\x1d3@'
tRp1978
ag6
(g8
S'\xb1\x9c\x9c\x9cT:R@'
tRp1979
ag11
aa(lp1980
S'10.1377755442'
p1981
ag6
(g8
S'\xc6\xe5\xdcD|\x1d3@'
tRp1982
ag6
(g8
S'\xe7\xf4\xa0`\xfe9R@'
tRp1983
ag11
aa(lp1984
S'10.5390472412'
p1985
ag6
(g8
S'\xc6\xe5\xdcD|\x1d3@'
tRp1986
ag6
(g8
S'\xe1\xe2b1\x00:R@'
tRp1987
ag11
aa(lp1988
S'9.84165518624'
p1989
ag6
(g8
S'\xc6\xe5\xdcD|\x1d3@'
tRp1990
ag6
(g8
S'\xdd\xd9\xc3\x19\x01:R@'
tRp1991
ag11
aa(lp1992
S'11.0771697998'
p1993
ag6
(g8
S'\xc6\xe5\xdcD|\x1d3@'
tRp1994
ag6
(g8
S'\xda\xd0$\x02\x02:R@'
tRp1995
ag11
aa(lp1996
S'10.4140777588'
p1997
ag6
(g8
S'\xc6\xe5\xdcD|\x1d3@'
tRp1998
ag6
(g8
S'\xd7\xc7\x85\xea\x02:R@'
tRp1999
ag11
aa(lp2000
S'10.685043335'
p2001
ag6
(g8
S'\xc6\xe5\xdcD|\x1d3@'
tRp2002
ag6
(g8
S'\xd4\xbe\xe6\xd2\x03:R@'
tRp2003
ag11
aa(lp2004
S'9.99463944706'
p2005
ag6
(g8
S'\xc6\xe5\xdcD|\x1d3@'
tRp2006
ag6
(g8
S'\xca\xa3\t\x8c\x06:R@'
tRp2007
ag11
aa(lp2008
S'10.0544433594'
p2009
ag6
(g8
S'\xc6\xe5\xdcD|\x1d3@'
tRp2010
ag6
(g8
S'\xc6\x9ajt\x07:R@'
tRp2011
ag11
aa(lp2012
S'10.1217699918'
p2013
ag6
(g8
S'\xc6\xe5\xdcD|\x1d3@'
tRp2014
ag6
(g8
S'\xc3\x91\xcb\\\x08:R@'
tRp2015
ag11
aa(lp2016
S'10.7847544352'
p2017
ag6
(g8
S'\xc6\xe5\xdcD|\x1d3@'
tRp2018
ag6
(g8
S'\xbd\x7f\x8d-\n:R@'
tRp2019
ag11
aa(lp2020
S'7.6722869873'
p2021
ag6
(g8
S'\xc6\xe5\xdcD|\x1d3@'
tRp2022
ag6
(g8
S'\x16\xb4\xdex8:R@'
tRp2023
ag11
aa(lp2024
S'9.93142918178'
p2025
ag6
(g8
S'\xc6\xe5\xdcD|\x1d3@'
tRp2026
ag6
(g8
S'\xc7\xdb\xf5AN:R@'
tRp2027
ag11
aa(lp2028
S'10.1770324707'
p2029
ag6
(g8
S'\xc6\xe5\xdcD|\x1d3@'
tRp2030
ag6
(g8
S'\xb4\xa5;\xb4S:R@'
tRp2031
ag11
aa(lp2032
S'10.0661605309'
p2033
ag6
(g8
S'\xc6\xe5\xdcD|\x1d3@'
tRp2034
ag6
(g8
S'\xb1\x9c\x9c\x9cT:R@'
tRp2035
ag11
aa(lp2036
S'10.2697347005'
p2037
ag6
(g8
S'\xc6\xe5\xdcD|\x1d3@'
tRp2038
ag6
(g8
S'\xad\x93\xfd\x84U:R@'
tRp2039
ag11
aa(lp2040
S'10.0358402418'
p2041
ag6
(g8
S'\xd3\xd2\x11.~\x1d3@'
tRp2042
ag6
(g8
S'\xea\xfd?x\xfd9R@'
tRp2043
ag11
aa(lp2044
S'10.1781036377'
p2045
ag6
(g8
S'\xd3\xd2\x11.~\x1d3@'
tRp2046
ag6
(g8
S'\xe7\xf4\xa0`\xfe9R@'
tRp2047
ag11
aa(lp2048
S'10.0348052979'
p2049
ag6
(g8
S'\xd3\xd2\x11.~\x1d3@'
tRp2050
ag6
(g8
S'\xda\xd0$\x02\x02:R@'
tRp2051
ag11
aa(lp2052
S'9.58738054548'
p2053
ag6
(g8
S'\xd3\xd2\x11.~\x1d3@'
tRp2054
ag6
(g8
S'\xd7\xc7\x85\xea\x02:R@'
tRp2055
ag11
aa(lp2056
S'10.604309082'
p2057
ag6
(g8
S'\xd3\xd2\x11.~\x1d3@'
tRp2058
ag6
(g8
S'\xd4\xbe\xe6\xd2\x03:R@'
tRp2059
ag11
aa(lp2060
S'9.34839283336'
p2061
ag6
(g8
S'\xd3\xd2\x11.~\x1d3@'
tRp2062
ag6
(g8
S'\xd0\xb5G\xbb\x04:R@'
tRp2063
ag11
aa(lp2064
S'9.70809936523'
p2065
ag6
(g8
S'\xd3\xd2\x11.~\x1d3@'
tRp2066
ag6
(g8
S'\xcd\xac\xa8\xa3\x05:R@'
tRp2067
ag11
aa(lp2068
S'9.67693529631'
p2069
ag6
(g8
S'\xd3\xd2\x11.~\x1d3@'
tRp2070
ag6
(g8
S'\xc0\x88,E\t:R@'
tRp2071
ag11
aa(lp2072
S'10.1065496826'
p2073
ag6
(g8
S'\xd3\xd2\x11.~\x1d3@'
tRp2074
ag6
(g8
S'\xbd\x7f\x8d-\n:R@'
tRp2075
ag11
aa(lp2076
S'10.1856613159'
p2077
ag6
(g8
S'\xd3\xd2\x11.~\x1d3@'
tRp2078
ag6
(g8
S'\xb9v\xee\x15\x0b:R@'
tRp2079
ag11
aa(lp2080
S'9.94911193848'
p2081
ag6
(g8
S'\xd3\xd2\x11.~\x1d3@'
tRp2082
ag6
(g8
S'\xb6mO\xfe\x0b:R@'
tRp2083
ag11
aa(lp2084
S'8.49649047852'
p2085
ag6
(g8
S'\xd3\xd2\x11.~\x1d3@'
tRp2086
ag6
(g8
S'\xd5\xffq\xa0J:R@'
tRp2087
ag11
aa(lp2088
S'10.7915252686'
p2089
ag6
(g8
S'\xd3\xd2\x11.~\x1d3@'
tRp2090
ag6
(g8
S'\xc7\xdb\xf5AN:R@'
tRp2091
ag11
aa(lp2092
S'8.4631652832'
p2093
ag6
(g8
S'\xd3\xd2\x11.~\x1d3@'
tRp2094
ag6
(g8
S'\xc4\xd2V*O:R@'
tRp2095
ag11
aa(lp2096
S'8.73464660645'
p2097
ag6
(g8
S'\xd3\xd2\x11.~\x1d3@'
tRp2098
ag6
(g8
S'\xb7\xae\xda\xcbR:R@'
tRp2099
ag11
aa(lp2100
S'9.90480499268'
p2101
ag6
(g8
S'\xd3\xd2\x11.~\x1d3@'
tRp2102
ag6
(g8
S'\xad\x93\xfd\x84U:R@'
tRp2103
ag11
aa(lp2104
S'9.89408335966'
p2105
ag6
(g8
S'\xe1\xbfF\x17\x80\x1d3@'
tRp2106
ag6
(g8
S'\xea\xfd?x\xfd9R@'
tRp2107
ag11
aa(lp2108
S'9.94975662231'
p2109
ag6
(g8
S'\xe1\xbfF\x17\x80\x1d3@'
tRp2110
ag6
(g8
S'\xe7\xf4\xa0`\xfe9R@'
tRp2111
ag11
aa(lp2112
S'9.73740768433'
p2113
ag6
(g8
S'\xe1\xbfF\x17\x80\x1d3@'
tRp2114
ag6
(g8
S'\xd4\xbe\xe6\xd2\x03:R@'
tRp2115
ag11
aa(lp2116
S'10.6249542236'
p2117
ag6
(g8
S'\xe1\xbfF\x17\x80\x1d3@'
tRp2118
ag6
(g8
S'\xd0\xb5G\xbb\x04:R@'
tRp2119
ag11
aa(lp2120
S'10.3139434814'
p2121
ag6
(g8
S'\xe1\xbfF\x17\x80\x1d3@'
tRp2122
ag6
(g8
S'\xcd\xac\xa8\xa3\x05:R@'
tRp2123
ag11
aa(lp2124
S'10.6152912487'
p2125
ag6
(g8
S'\xe1\xbfF\x17\x80\x1d3@'
tRp2126
ag6
(g8
S'\xca\xa3\t\x8c\x06:R@'
tRp2127
ag11
aa(lp2128
S'9.77124532064'
p2129
ag6
(g8
S'\xe1\xbfF\x17\x80\x1d3@'
tRp2130
ag6
(g8
S'\xb9v\xee\x15\x0b:R@'
tRp2131
ag11
aa(lp2132
S'10.2875903586'
p2133
ag6
(g8
S'\xe1\xbfF\x17\x80\x1d3@'
tRp2134
ag6
(g8
S'\xb6mO\xfe\x0b:R@'
tRp2135
ag11
aa(lp2136
S'10.0068529402'
p2137
ag6
(g8
S'\xe1\xbfF\x17\x80\x1d3@'
tRp2138
ag6
(g8
S'\xb3d\xb0\xe6\x0c:R@'
tRp2139
ag11
aa(lp2140
S'10.0490063754'
p2141
ag6
(g8
S'\xe1\xbfF\x17\x80\x1d3@'
tRp2142
ag6
(g8
S'\xb0[\x11\xcf\r:R@'
tRp2143
ag11
aa(lp2144
S'10.3093130929'
p2145
ag6
(g8
S'\xe1\xbfF\x17\x80\x1d3@'
tRp2146
ag6
(g8
S'\xacRr\xb7\x0e:R@'
tRp2147
ag11
aa(lp2148
S'9.9979095459'
p2149
ag6
(g8
S'\xe1\xbfF\x17\x80\x1d3@'
tRp2150
ag6
(g8
S'\x13\xab?a9:R@'
tRp2151
ag11
aa(lp2152
S'10.9639434814'
p2153
ag6
(g8
S'\xe1\xbfF\x17\x80\x1d3@'
tRp2154
ag6
(g8
S'\xd5\xffq\xa0J:R@'
tRp2155
ag11
aa(lp2156
S'10.616607666'
p2157
ag6
(g8
S'\xe1\xbfF\x17\x80\x1d3@'
tRp2158
ag6
(g8
S'\xc4\xd2V*O:R@'
tRp2159
ag11
aa(lp2160
S'10.0778900146'
p2161
ag6
(g8
S'\xe1\xbfF\x17\x80\x1d3@'
tRp2162
ag6
(g8
S'\xb7\xae\xda\xcbR:R@'
tRp2163
ag11
aa(lp2164
S'9.38466644287'
p2165
ag6
(g8
S'\xe1\xbfF\x17\x80\x1d3@'
tRp2166
ag6
(g8
S'\xad\x93\xfd\x84U:R@'
tRp2167
ag11
aa(lp2168
S'10.1003582447'
p2169
ag6
(g8
S'\xee\xac{\x00\x82\x1d3@'
tRp2170
ag6
(g8
S'\xe7\xf4\xa0`\xfe9R@'
tRp2171
ag11
aa(lp2172
S'10.1591020667'
p2173
ag6
(g8
S'\xee\xac{\x00\x82\x1d3@'
tRp2174
ag6
(g8
S'\xe4\xeb\x01I\xff9R@'
tRp2175
ag11
aa(lp2176
S'10.5590820312'
p2177
ag6
(g8
S'\xee\xac{\x00\x82\x1d3@'
tRp2178
ag6
(g8
S'\xcd\xac\xa8\xa3\x05:R@'
tRp2179
ag11
aa(lp2180
S'9.7262298584'
p2181
ag6
(g8
S'\xee\xac{\x00\x82\x1d3@'
tRp2182
ag6
(g8
S'\xca\xa3\t\x8c\x06:R@'
tRp2183
ag11
aa(lp2184
S'10.3861605996'
p2185
ag6
(g8
S'\xee\xac{\x00\x82\x1d3@'
tRp2186
ag6
(g8
S'\xc6\x9ajt\x07:R@'
tRp2187
ag11
aa(lp2188
S'9.6679901123'
p2189
ag6
(g8
S'\xee\xac{\x00\x82\x1d3@'
tRp2190
ag6
(g8
S'\xc3\x91\xcb\\\x08:R@'
tRp2191
ag11
aa(lp2192
S'9.51514053345'
p2193
ag6
(g8
S'\xee\xac{\x00\x82\x1d3@'
tRp2194
ag6
(g8
S'\xb9v\xee\x15\x0b:R@'
tRp2195
ag11
aa(lp2196
S'10.4953250227'
p2197
ag6
(g8
S'\xee\xac{\x00\x82\x1d3@'
tRp2198
ag6
(g8
S'\xacRr\xb7\x0e:R@'
tRp2199
ag11
aa(lp2200
S'9.85830619118'
p2201
ag6
(g8
S'\xee\xac{\x00\x82\x1d3@'
tRp2202
ag6
(g8
S'\xa9I\xd3\x9f\x0f:R@'
tRp2203
ag11
aa(lp2204
S'9.90696855025'
p2205
ag6
(g8
S'\xee\xac{\x00\x82\x1d3@'
tRp2206
ag6
(g8
S'\xa6@4\x88\x10:R@'
tRp2207
ag11
aa(lp2208
S'10.5201365153'
p2209
ag6
(g8
S'\xee\xac{\x00\x82\x1d3@'
tRp2210
ag6
(g8
S'\xa37\x95p\x11:R@'
tRp2211
ag11
aa(lp2212
S'10.6469573975'
p2213
ag6
(g8
S'\xee\xac{\x00\x82\x1d3@'
tRp2214
ag6
(g8
S'\x13\xab?a9:R@'
tRp2215
ag11
aa(lp2216
S'10.5188140869'
p2217
ag6
(g8
S'\xee\xac{\x00\x82\x1d3@'
tRp2218
ag6
(g8
S'\xd5\xffq\xa0J:R@'
tRp2219
ag11
aa(lp2220
S'10.559337071'
p2221
ag6
(g8
S'\xee\xac{\x00\x82\x1d3@'
tRp2222
ag6
(g8
S'\xc4\xd2V*O:R@'
tRp2223
ag11
aa(lp2224
S'9.93006896973'
p2225
ag6
(g8
S'\xee\xac{\x00\x82\x1d3@'
tRp2226
ag6
(g8
S'\xad\x93\xfd\x84U:R@'
tRp2227
ag11
aa(lp2228
S'10.0454087691'
p2229
ag6
(g8
S'\xfb\x99\xb0\xe9\x83\x1d3@'
tRp2230
ag6
(g8
S'\xe4\xeb\x01I\xff9R@'
tRp2231
ag11
aa(lp2232
S'10.1688265531'
p2233
ag6
(g8
S'\xfb\x99\xb0\xe9\x83\x1d3@'
tRp2234
ag6
(g8
S'\xe1\xe2b1\x00:R@'
tRp2235
ag11
aa(lp2236
S'9.97688293457'
p2237
ag6
(g8
S'\xfb\x99\xb0\xe9\x83\x1d3@'
tRp2238
ag6
(g8
S'\xc6\x9ajt\x07:R@'
tRp2239
ag11
aa(lp2240
S'9.90025168971'
p2241
ag6
(g8
S'\xfb\x99\xb0\xe9\x83\x1d3@'
tRp2242
ag6
(g8
S'\xc3\x91\xcb\\\x08:R@'
tRp2243
ag11
aa(lp2244
S'10.3496634743'
p2245
ag6
(g8
S'\xfb\x99\xb0\xe9\x83\x1d3@'
tRp2246
ag6
(g8
S'\xc0\x88,E\t:R@'
tRp2247
ag11
aa(lp2248
S'9.79213968913'
p2249
ag6
(g8
S'\xfb\x99\xb0\xe9\x83\x1d3@'
tRp2250
ag6
(g8
S'\xb6mO\xfe\x0b:R@'
tRp2251
ag11
aa(lp2252
S'10.1046453857'
p2253
ag6
(g8
S'\xfb\x99\xb0\xe9\x83\x1d3@'
tRp2254
ag6
(g8
S'\xa37\x95p\x11:R@'
tRp2255
ag11
aa(lp2256
S'9.78448763761'
p2257
ag6
(g8
S'\xfb\x99\xb0\xe9\x83\x1d3@'
tRp2258
ag6
(g8
S'\x9f.\xf6X\x12:R@'
tRp2259
ag11
aa(lp2260
S'9.34465997869'
p2261
ag6
(g8
S'\xfb\x99\xb0\xe9\x83\x1d3@'
tRp2262
ag6
(g8
S'\x9c%WA\x13:R@'
tRp2263
ag11
aa(lp2264
S'9.25564774223'
p2265
ag6
(g8
S'\xfb\x99\xb0\xe9\x83\x1d3@'
tRp2266
ag6
(g8
S'\x99\x1c\xb8)\x14:R@'
tRp2267
ag11
aa(lp2268
S'10.1806030273'
p2269
ag6
(g8
S'\xfb\x99\xb0\xe9\x83\x1d3@'
tRp2270
ag6
(g8
S'\x0f\xa2\xa0I::R@'
tRp2271
ag11
aa(lp2272
S'8.8501739502'
p2273
ag6
(g8
S'\xfb\x99\xb0\xe9\x83\x1d3@'
tRp2274
ag6
(g8
S'\xd5\xffq\xa0J:R@'
tRp2275
ag11
aa(lp2276
S'9.99382890974'
p2277
ag6
(g8
S'\xfb\x99\xb0\xe9\x83\x1d3@'
tRp2278
ag6
(g8
S'\xc4\xd2V*O:R@'
tRp2279
ag11
aa(lp2280
S'10.5258758545'
p2281
ag6
(g8
S'\xfb\x99\xb0\xe9\x83\x1d3@'
tRp2282
ag6
(g8
S'\xb7\xae\xda\xcbR:R@'
tRp2283
ag11
aa(lp2284
S'10.8816223145'
p2285
ag6
(g8
S'\xfb\x99\xb0\xe9\x83\x1d3@'
tRp2286
ag6
(g8
S'\xad\x93\xfd\x84U:R@'
tRp2287
ag11
aa(lp2288
S'10.2576675415'
p2289
ag6
(g8
S'\t\x87\xe5\xd2\x85\x1d3@'
tRp2290
ag6
(g8
S'\xc0\x88,E\t:R@'
tRp2291
ag11
aa(lp2292
S'9.85799133301'
p2293
ag6
(g8
S'\t\x87\xe5\xd2\x85\x1d3@'
tRp2294
ag6
(g8
S'\xbd\x7f\x8d-\n:R@'
tRp2295
ag11
aa(lp2296
S'10.7381305695'
p2297
ag6
(g8
S'\t\x87\xe5\xd2\x85\x1d3@'
tRp2298
ag6
(g8
S'\xb9v\xee\x15\x0b:R@'
tRp2299
ag11
aa(lp2300
S'10.1633766576'
p2301
ag6
(g8
S'\t\x87\xe5\xd2\x85\x1d3@'
tRp2302
ag6
(g8
S'\x95\x13\x19\x12\x15:R@'
tRp2303
ag11
aa(lp2304
S'10.1529312134'
p2305
ag6
(g8
S'\t\x87\xe5\xd2\x85\x1d3@'
tRp2306
ag6
(g8
S'\x92\nz\xfa\x15:R@'
tRp2307
ag11
aa(lp2308
S'10.2613372803'
p2309
ag6
(g8
S'\t\x87\xe5\xd2\x85\x1d3@'
tRp2310
ag6
(g8
S'\x8f\x01\xdb\xe2\x16:R@'
tRp2311
ag11
aa(lp2312
S'8.84501647949'
p2313
ag6
(g8
S'\t\x87\xe5\xd2\x85\x1d3@'
tRp2314
ag6
(g8
S'\x0f\xa2\xa0I::R@'
tRp2315
ag11
aa(lp2316
S'11.0865325928'
p2317
ag6
(g8
S'\t\x87\xe5\xd2\x85\x1d3@'
tRp2318
ag6
(g8
S'\xd5\xffq\xa0J:R@'
tRp2319
ag11
aa(lp2320
S'10.3008117676'
p2321
ag6
(g8
S'\t\x87\xe5\xd2\x85\x1d3@'
tRp2322
ag6
(g8
S'\xc4\xd2V*O:R@'
tRp2323
ag11
aa(lp2324
S'9.70988464355'
p2325
ag6
(g8
S'\t\x87\xe5\xd2\x85\x1d3@'
tRp2326
ag6
(g8
S'\xb7\xae\xda\xcbR:R@'
tRp2327
ag11
aa(lp2328
S'9.86698913574'
p2329
ag6
(g8
S'\t\x87\xe5\xd2\x85\x1d3@'
tRp2330
ag6
(g8
S'\xb1\x9c\x9c\x9cT:R@'
tRp2331
ag11
aa(lp2332
S'10.193784098'
p2333
ag6
(g8
S'\x16t\x1a\xbc\x87\x1d3@'
tRp2334
ag6
(g8
S'\xb9v\xee\x15\x0b:R@'
tRp2335
ag11
aa(lp2336
S'9.99662780762'
p2337
ag6
(g8
S'\x16t\x1a\xbc\x87\x1d3@'
tRp2338
ag6
(g8
S'\xb6mO\xfe\x0b:R@'
tRp2339
ag11
aa(lp2340
S'9.15340677897'
p2341
ag6
(g8
S'\x16t\x1a\xbc\x87\x1d3@'
tRp2342
ag6
(g8
S'\xb3d\xb0\xe6\x0c:R@'
tRp2343
ag11
aa(lp2344
S'10.1309127808'
p2345
ag6
(g8
S'\x16t\x1a\xbc\x87\x1d3@'
tRp2346
ag6
(g8
S'\x8f\x01\xdb\xe2\x16:R@'
tRp2347
ag11
aa(lp2348
S'10.1444646662'
p2349
ag6
(g8
S'\x16t\x1a\xbc\x87\x1d3@'
tRp2350
ag6
(g8
S'\x8c\xf8;\xcb\x17:R@'
tRp2351
ag11
aa(lp2352
S'10.1959460715'
p2353
ag6
(g8
S'\x16t\x1a\xbc\x87\x1d3@'
tRp2354
ag6
(g8
S'\x88\xef\x9c\xb3\x18:R@'
tRp2355
ag11
aa(lp2356
S'10.4112878615'
p2357
ag6
(g8
S'\x16t\x1a\xbc\x87\x1d3@'
tRp2358
ag6
(g8
S'\x85\xe6\xfd\x9b\x19:R@'
tRp2359
ag11
aa(lp2360
S'10.0034637451'
p2361
ag6
(g8
S'\x16t\x1a\xbc\x87\x1d3@'
tRp2362
ag6
(g8
S'\xd5\xffq\xa0J:R@'
tRp2363
ag11
aa(lp2364
S'9.31325531006'
p2365
ag6
(g8
S'\x16t\x1a\xbc\x87\x1d3@'
tRp2366
ag6
(g8
S'\xc4\xd2V*O:R@'
tRp2367
ag11
aa(lp2368
S'10.6723480225'
p2369
ag6
(g8
S'\x16t\x1a\xbc\x87\x1d3@'
tRp2370
ag6
(g8
S'\xc1\xc9\xb7\x12P:R@'
tRp2371
ag11
aa(lp2372
S'9.79414978027'
p2373
ag6
(g8
S'\x16t\x1a\xbc\x87\x1d3@'
tRp2374
ag6
(g8
S'\xb7\xae\xda\xcbR:R@'
tRp2375
ag11
aa(lp2376
S'10.4174499512'
p2377
ag6
(g8
S'\x16t\x1a\xbc\x87\x1d3@'
tRp2378
ag6
(g8
S'\xb1\x9c\x9c\x9cT:R@'
tRp2379
ag11
aa(lp2380
S'10.4420366789'
p2381
ag6
(g8
S'#aO\xa5\x89\x1d3@'
tRp2382
ag6
(g8
S'\xb3d\xb0\xe6\x0c:R@'
tRp2383
ag11
aa(lp2384
S'10.5088391985'
p2385
ag6
(g8
S'#aO\xa5\x89\x1d3@'
tRp2386
ag6
(g8
S'\xb0[\x11\xcf\r:R@'
tRp2387
ag11
aa(lp2388
S'10.1780544779'
p2389
ag6
(g8
S'#aO\xa5\x89\x1d3@'
tRp2390
ag6
(g8
S'\x85\xe6\xfd\x9b\x19:R@'
tRp2391
ag11
aa(lp2392
S'8.43321228027'
p2393
ag6
(g8
S'#aO\xa5\x89\x1d3@'
tRp2394
ag6
(g8
S'\x0c\x99\x012;:R@'
tRp2395
ag11
aa(lp2396
S'10.9320351737'
p2397
ag6
(g8
S'#aO\xa5\x89\x1d3@'
tRp2398
ag6
(g8
S'\xc1\xc9\xb7\x12P:R@'
tRp2399
ag11
aa(lp2400
S'10.0333770752'
p2401
ag6
(g8
S'#aO\xa5\x89\x1d3@'
tRp2402
ag6
(g8
S'\xb7\xae\xda\xcbR:R@'
tRp2403
ag11
aa(lp2404
S'10.3561553955'
p2405
ag6
(g8
S'#aO\xa5\x89\x1d3@'
tRp2406
ag6
(g8
S'\xb1\x9c\x9c\x9cT:R@'
tRp2407
ag11
aa(lp2408
S'10.1771809605'
p2409
ag6
(g8
S'1N\x84\x8e\x8b\x1d3@'
tRp2410
ag6
(g8
S'\xb0[\x11\xcf\r:R@'
tRp2411
ag11
aa(lp2412
S'10.310333252'
p2413
ag6
(g8
S'1N\x84\x8e\x8b\x1d3@'
tRp2414
ag6
(g8
S'\xacRr\xb7\x0e:R@'
tRp2415
ag11
aa(lp2416
S'10.1020507812'
p2417
ag6
(g8
S'1N\x84\x8e\x8b\x1d3@'
tRp2418
ag6
(g8
S'\xa9I\xd3\x9f\x0f:R@'
tRp2419
ag11
aa(lp2420
S'10.3636932373'
p2421
ag6
(g8
S'1N\x84\x8e\x8b\x1d3@'
tRp2422
ag6
(g8
S'\x0c\x99\x012;:R@'
tRp2423
ag11
aa(lp2424
S'9.80837249756'
p2425
ag6
(g8
S'1N\x84\x8e\x8b\x1d3@'
tRp2426
ag6
(g8
S'\xd5\xffq\xa0J:R@'
tRp2427
ag11
aa(lp2428
S'9.79696655273'
p2429
ag6
(g8
S'1N\x84\x8e\x8b\x1d3@'
tRp2430
ag6
(g8
S'\xc1\xc9\xb7\x12P:R@'
tRp2431
ag11
aa(lp2432
S'8.3145904541'
p2433
ag6
(g8
S'1N\x84\x8e\x8b\x1d3@'
tRp2434
ag6
(g8
S'\xba\xb7y\xe3Q:R@'
tRp2435
ag11
aa(lp2436
S'10.6263275146'
p2437
ag6
(g8
S'1N\x84\x8e\x8b\x1d3@'
tRp2438
ag6
(g8
S'\xb1\x9c\x9c\x9cT:R@'
tRp2439
ag11
aa(lp2440
S'10.211877662'
p2441
ag6
(g8
S'>;\xb9w\x8d\x1d3@'
tRp2442
ag6
(g8
S'\xb0[\x11\xcf\r:R@'
tRp2443
ag11
aa(lp2444
S'10.9988555908'
p2445
ag6
(g8
S'>;\xb9w\x8d\x1d3@'
tRp2446
ag6
(g8
S'\xa9I\xd3\x9f\x0f:R@'
tRp2447
ag11
aa(lp2448
S'10.1745033264'
p2449
ag6
(g8
S'>;\xb9w\x8d\x1d3@'
tRp2450
ag6
(g8
S'\xa6@4\x88\x10:R@'
tRp2451
ag11
aa(lp2452
S'10.1609649658'
p2453
ag6
(g8
S'>;\xb9w\x8d\x1d3@'
tRp2454
ag6
(g8
S'\x0c\x99\x012;:R@'
tRp2455
ag11
aa(lp2456
S'10.3807525635'
p2457
ag6
(g8
S'>;\xb9w\x8d\x1d3@'
tRp2458
ag6
(g8
S'\xd5\xffq\xa0J:R@'
tRp2459
ag11
aa(lp2460
S'9.63541303362'
p2461
ag6
(g8
S'>;\xb9w\x8d\x1d3@'
tRp2462
ag6
(g8
S'\xc1\xc9\xb7\x12P:R@'
tRp2463
ag11
aa(lp2464
S'10.6696502686'
p2465
ag6
(g8
S'>;\xb9w\x8d\x1d3@'
tRp2466
ag6
(g8
S'\xba\xb7y\xe3Q:R@'
tRp2467
ag11
aa(lp2468
S'7.30570983887'
p2469
ag6
(g8
S'>;\xb9w\x8d\x1d3@'
tRp2470
ag6
(g8
S'\xb4\xa5;\xb4S:R@'
tRp2471
ag11
aa(lp2472
S'9.24452209473'
p2473
ag6
(g8
S'>;\xb9w\x8d\x1d3@'
tRp2474
ag6
(g8
S'\xb1\x9c\x9c\x9cT:R@'
tRp2475
ag11
aa(lp2476
S'9.8608681815'
p2477
ag6
(g8
S'K(\xee`\x8f\x1d3@'
tRp2478
ag6
(g8
S'\xb0[\x11\xcf\r:R@'
tRp2479
ag11
aa(lp2480
S'10.2966973877'
p2481
ag6
(g8
S'K(\xee`\x8f\x1d3@'
tRp2482
ag6
(g8
S'\xacRr\xb7\x0e:R@'
tRp2483
ag11
aa(lp2484
S'10.1669806027'
p2485
ag6
(g8
S'K(\xee`\x8f\x1d3@'
tRp2486
ag6
(g8
S'\xa6@4\x88\x10:R@'
tRp2487
ag11
aa(lp2488
S'8.79978942871'
p2489
ag6
(g8
S'K(\xee`\x8f\x1d3@'
tRp2490
ag6
(g8
S'\t\x90b\x1a<:R@'
tRp2491
ag11
aa(lp2492
S'9.10884094238'
p2493
ag6
(g8
S'K(\xee`\x8f\x1d3@'
tRp2494
ag6
(g8
S'\xd5\xffq\xa0J:R@'
tRp2495
ag11
aa(lp2496
S'9.64374433245'
p2497
ag6
(g8
S'K(\xee`\x8f\x1d3@'
tRp2498
ag6
(g8
S'\xc1\xc9\xb7\x12P:R@'
tRp2499
ag11
aa(lp2500
S'10.28331604'
p2501
ag6
(g8
S'K(\xee`\x8f\x1d3@'
tRp2502
ag6
(g8
S'\xba\xb7y\xe3Q:R@'
tRp2503
ag11
aa(lp2504
S'10.1421268651'
p2505
ag6
(g8
S'Y\x15#J\x91\x1d3@'
tRp2506
ag6
(g8
S'\x9c%WA\x13:R@'
tRp2507
ag11
aa(lp2508
S'10.2549102783'
p2509
ag6
(g8
S'Y\x15#J\x91\x1d3@'
tRp2510
ag6
(g8
S'\x99\x1c\xb8)\x14:R@'
tRp2511
ag11
aa(lp2512
S'10.4771575928'
p2513
ag6
(g8
S'Y\x15#J\x91\x1d3@'
tRp2514
ag6
(g8
S'\xd5\xffq\xa0J:R@'
tRp2515
ag11
aa(lp2516
S'9.2338104248'
p2517
ag6
(g8
S'Y\x15#J\x91\x1d3@'
tRp2518
ag6
(g8
S'\xbe\xc0\x18\xfbP:R@'
tRp2519
ag11
aa(lp2520
S'10.5636444092'
p2521
ag6
(g8
S'Y\x15#J\x91\x1d3@'
tRp2522
ag6
(g8
S'\xba\xb7y\xe3Q:R@'
tRp2523
ag11
aa(lp2524
S'9.11925506592'
p2525
ag6
(g8
S'Y\x15#J\x91\x1d3@'
tRp2526
ag6
(g8
S'\xb4\xa5;\xb4S:R@'
tRp2527
ag11
aa(lp2528
S'10.2408124138'
p2529
ag6
(g8
S'f\x02X3\x93\x1d3@'
tRp2530
ag6
(g8
S'\x99\x1c\xb8)\x14:R@'
tRp2531
ag11
aa(lp2532
S'9.81866760254'
p2533
ag6
(g8
S'f\x02X3\x93\x1d3@'
tRp2534
ag6
(g8
S'\x95\x13\x19\x12\x15:R@'
tRp2535
ag11
aa(lp2536
S'10.114151001'
p2537
ag6
(g8
S'f\x02X3\x93\x1d3@'
tRp2538
ag6
(g8
S'\x92\nz\xfa\x15:R@'
tRp2539
ag11
aa(lp2540
S'9.60157775879'
p2541
ag6
(g8
S'f\x02X3\x93\x1d3@'
tRp2542
ag6
(g8
S'\t\x90b\x1a<:R@'
tRp2543
ag11
aa(lp2544
S'9.86659240723'
p2545
ag6
(g8
S'f\x02X3\x93\x1d3@'
tRp2546
ag6
(g8
S'\xd5\xffq\xa0J:R@'
tRp2547
ag11
aa(lp2548
S'9.63932364328'
p2549
ag6
(g8
S'f\x02X3\x93\x1d3@'
tRp2550
ag6
(g8
S'\xbe\xc0\x18\xfbP:R@'
tRp2551
ag11
aa(lp2552
S'9.49660339355'
p2553
ag6
(g8
S'f\x02X3\x93\x1d3@'
tRp2554
ag6
(g8
S'\xba\xb7y\xe3Q:R@'
tRp2555
ag11
aa(lp2556
S'10.1155678885'
p2557
ag6
(g8
S's\xef\x8c\x1c\x95\x1d3@'
tRp2558
ag6
(g8
S'\x92\nz\xfa\x15:R@'
tRp2559
ag11
aa(lp2560
S'9.94539901514'
p2561
ag6
(g8
S's\xef\x8c\x1c\x95\x1d3@'
tRp2562
ag6
(g8
S'\x8f\x01\xdb\xe2\x16:R@'
tRp2563
ag11
aa(lp2564
S'10.2275312019'
p2565
ag6
(g8
S's\xef\x8c\x1c\x95\x1d3@'
tRp2566
ag6
(g8
S'\x8c\xf8;\xcb\x17:R@'
tRp2567
ag11
aa(lp2568
S'10.2016693115'
p2569
ag6
(g8
S's\xef\x8c\x1c\x95\x1d3@'
tRp2570
ag6
(g8
S'\x88\xef\x9c\xb3\x18:R@'
tRp2571
ag11
aa(lp2572
S'10.9111785889'
p2573
ag6
(g8
S's\xef\x8c\x1c\x95\x1d3@'
tRp2574
ag6
(g8
S'\x06\x87\xc3\x02=:R@'
tRp2575
ag11
aa(lp2576
S'10.9214935303'
p2577
ag6
(g8
S's\xef\x8c\x1c\x95\x1d3@'
tRp2578
ag6
(g8
S'\xd5\xffq\xa0J:R@'
tRp2579
ag11
aa(lp2580
S'9.03981018066'
p2581
ag6
(g8
S's\xef\x8c\x1c\x95\x1d3@'
tRp2582
ag6
(g8
S'\xbe\xc0\x18\xfbP:R@'
tRp2583
ag11
aa(lp2584
S'9.78653259277'
p2585
ag6
(g8
S's\xef\x8c\x1c\x95\x1d3@'
tRp2586
ag6
(g8
S'\xba\xb7y\xe3Q:R@'
tRp2587
ag11
aa(lp2588
S'9.68905639648'
p2589
ag6
(g8
S's\xef\x8c\x1c\x95\x1d3@'
tRp2590
ag6
(g8
S'\xb4\xa5;\xb4S:R@'
tRp2591
ag11
aa(lp2592
S'9.70988464355'
p2593
ag6
(g8
S'\x81\xdc\xc1\x05\x97\x1d3@'
tRp2594
ag6
(g8
S'\x92\nz\xfa\x15:R@'
tRp2595
ag11
aa(lp2596
S'10.1307395207'
p2597
ag6
(g8
S'\x81\xdc\xc1\x05\x97\x1d3@'
tRp2598
ag6
(g8
S'\x8f\x01\xdb\xe2\x16:R@'
tRp2599
ag11
aa(lp2600
S'9.86776619903'
p2601
ag6
(g8
S'\x81\xdc\xc1\x05\x97\x1d3@'
tRp2602
ag6
(g8
S'\x8c\xf8;\xcb\x17:R@'
tRp2603
ag11
aa(lp2604
S'10.1411318739'
p2605
ag6
(g8
S'\x81\xdc\xc1\x05\x97\x1d3@'
tRp2606
ag6
(g8
S'\x88\xef\x9c\xb3\x18:R@'
tRp2607
ag11
aa(lp2608
S'10.170125994'
p2609
ag6
(g8
S'\x81\xdc\xc1\x05\x97\x1d3@'
tRp2610
ag6
(g8
S'\x85\xe6\xfd\x9b\x19:R@'
tRp2611
ag11
aa(lp2612
S'10.2355992098'
p2613
ag6
(g8
S'\x81\xdc\xc1\x05\x97\x1d3@'
tRp2614
ag6
(g8
S'\x82\xdd^\x84\x1a:R@'
tRp2615
ag11
aa(lp2616
S'10.2938642387'
p2617
ag6
(g8
S'\x81\xdc\xc1\x05\x97\x1d3@'
tRp2618
ag6
(g8
S'\x7f\xd4\xbfl\x1b:R@'
tRp2619
ag11
aa(lp2620
S'10.2019032445'
p2621
ag6
(g8
S'\x81\xdc\xc1\x05\x97\x1d3@'
tRp2622
ag6
(g8
S'{\xcb U\x1c:R@'
tRp2623
ag11
aa(lp2624
S'10.1499132429'
p2625
ag6
(g8
S'\x81\xdc\xc1\x05\x97\x1d3@'
tRp2626
ag6
(g8
S'x\xc2\x81=\x1d:R@'
tRp2627
ag11
aa(lp2628
S'10.09034729'
p2629
ag6
(g8
S'\x81\xdc\xc1\x05\x97\x1d3@'
tRp2630
ag6
(g8
S'u\xb9\xe2%\x1e:R@'
tRp2631
ag11
aa(lp2632
S'9.85972900391'
p2633
ag6
(g8
S'\x81\xdc\xc1\x05\x97\x1d3@'
tRp2634
ag6
(g8
S'q\xb0C\x0e\x1f:R@'
tRp2635
ag11
aa(lp2636
S'10.3494693532'
p2637
ag6
(g8
S'\x81\xdc\xc1\x05\x97\x1d3@'
tRp2638
ag6
(g8
S'n\xa7\xa4\xf6\x1f:R@'
tRp2639
ag11
aa(lp2640
S'10.002416642'
p2641
ag6
(g8
S'\x81\xdc\xc1\x05\x97\x1d3@'
tRp2642
ag6
(g8
S'k\x9e\x05\xdf :R@'
tRp2643
ag11
aa(lp2644
S'10.5302751329'
p2645
ag6
(g8
S'\x81\xdc\xc1\x05\x97\x1d3@'
tRp2646
ag6
(g8
S'h\x95f\xc7!:R@'
tRp2647
ag11
aa(lp2648
S'8.49430847168'
p2649
ag6
(g8
S'\x81\xdc\xc1\x05\x97\x1d3@'
tRp2650
ag6
(g8
S'\x06\x87\xc3\x02=:R@'
tRp2651
ag11
aa(lp2652
S'10.3930511475'
p2653
ag6
(g8
S'\x81\xdc\xc1\x05\x97\x1d3@'
tRp2654
ag6
(g8
S'\xd5\xffq\xa0J:R@'
tRp2655
ag11
aa(lp2656
S'10.2434844971'
p2657
ag6
(g8
S'\x81\xdc\xc1\x05\x97\x1d3@'
tRp2658
ag6
(g8
S'\xbe\xc0\x18\xfbP:R@'
tRp2659
ag11
aa(lp2660
S'10.4827911377'
p2661
ag6
(g8
S'\x81\xdc\xc1\x05\x97\x1d3@'
tRp2662
ag6
(g8
S'\xba\xb7y\xe3Q:R@'
tRp2663
ag11
aa(lp2664
S'9.96517944336'
p2665
ag6
(g8
S'\x81\xdc\xc1\x05\x97\x1d3@'
tRp2666
ag6
(g8
S'\xb7\xae\xda\xcbR:R@'
tRp2667
ag11
aa(lp2668
S'9.73647155762'
p2669
ag6
(g8
S'\x8e\xc9\xf6\xee\x98\x1d3@'
tRp2670
ag6
(g8
S'\x88\xef\x9c\xb3\x18:R@'
tRp2671
ag11
aa(lp2672
S'10.1703657067'
p2673
ag6
(g8
S'\x8e\xc9\xf6\xee\x98\x1d3@'
tRp2674
ag6
(g8
S'\x85\xe6\xfd\x9b\x19:R@'
tRp2675
ag11
aa(lp2676
S'10.2050238715'
p2677
ag6
(g8
S'\x8e\xc9\xf6\xee\x98\x1d3@'
tRp2678
ag6
(g8
S'\x82\xdd^\x84\x1a:R@'
tRp2679
ag11
aa(lp2680
S'10.3114573161'
p2681
ag6
(g8
S'\x8e\xc9\xf6\xee\x98\x1d3@'
tRp2682
ag6
(g8
S'\x7f\xd4\xbfl\x1b:R@'
tRp2683
ag11
aa(lp2684
S'8.86128234863'
p2685
ag6
(g8
S'\x8e\xc9\xf6\xee\x98\x1d3@'
tRp2686
ag6
(g8
S'{\xcb U\x1c:R@'
tRp2687
ag11
aa(lp2688
S'9.98783016205'
p2689
ag6
(g8
S'\x8e\xc9\xf6\xee\x98\x1d3@'
tRp2690
ag6
(g8
S'h\x95f\xc7!:R@'
tRp2691
ag11
aa(lp2692
S'10.209516328'
p2693
ag6
(g8
S'\x8e\xc9\xf6\xee\x98\x1d3@'
tRp2694
ag6
(g8
S'd\x8c\xc7\xaf":R@'
tRp2695
ag11
aa(lp2696
S'10.2711893717'
p2697
ag6
(g8
S'\x8e\xc9\xf6\xee\x98\x1d3@'
tRp2698
ag6
(g8
S'a\x83(\x98#:R@'
tRp2699
ag11
aa(lp2700
S'9.87879943848'
p2701
ag6
(g8
S'\x8e\xc9\xf6\xee\x98\x1d3@'
tRp2702
ag6
(g8
S'^z\x89\x80$:R@'
tRp2703
ag11
aa(lp2704
S'10.7937469482'
p2705
ag6
(g8
S'\x8e\xc9\xf6\xee\x98\x1d3@'
tRp2706
ag6
(g8
S'\x06\x87\xc3\x02=:R@'
tRp2707
ag11
aa(lp2708
S'10.3414764404'
p2709
ag6
(g8
S'\x8e\xc9\xf6\xee\x98\x1d3@'
tRp2710
ag6
(g8
S'\xd5\xffq\xa0J:R@'
tRp2711
ag11
aa(lp2712
S'9.45677185059'
p2713
ag6
(g8
S'\x8e\xc9\xf6\xee\x98\x1d3@'
tRp2714
ag6
(g8
S'\xbe\xc0\x18\xfbP:R@'
tRp2715
ag11
aa(lp2716
S'9.87928771973'
p2717
ag6
(g8
S'\x8e\xc9\xf6\xee\x98\x1d3@'
tRp2718
ag6
(g8
S'\xba\xb7y\xe3Q:R@'
tRp2719
ag11
aa(lp2720
S'9.83396148682'
p2721
ag6
(g8
S'\x8e\xc9\xf6\xee\x98\x1d3@'
tRp2722
ag6
(g8
S'\xb7\xae\xda\xcbR:R@'
tRp2723
ag11
aa(lp2724
S'9.90126647949'
p2725
ag6
(g8
S'\x9b\xb6+\xd8\x9a\x1d3@'
tRp2726
ag6
(g8
S'\x85\xe6\xfd\x9b\x19:R@'
tRp2727
ag11
aa(lp2728
S'10.249584198'
p2729
ag6
(g8
S'\x9b\xb6+\xd8\x9a\x1d3@'
tRp2730
ag6
(g8
S'\x82\xdd^\x84\x1a:R@'
tRp2731
ag11
aa(lp2732
S'10.2571535977'
p2733
ag6
(g8
S'\x9b\xb6+\xd8\x9a\x1d3@'
tRp2734
ag6
(g8
S'\x7f\xd4\xbfl\x1b:R@'
tRp2735
ag11
aa(lp2736
S'10.0617925471'
p2737
ag6
(g8
S'\x9b\xb6+\xd8\x9a\x1d3@'
tRp2738
ag6
(g8
S'{\xcb U\x1c:R@'
tRp2739
ag11
aa(lp2740
S'9.90578918457'
p2741
ag6
(g8
S'\x9b\xb6+\xd8\x9a\x1d3@'
tRp2742
ag6
(g8
S'^z\x89\x80$:R@'
tRp2743
ag11
aa(lp2744
S'10.0258789062'
p2745
ag6
(g8
S'\x9b\xb6+\xd8\x9a\x1d3@'
tRp2746
ag6
(g8
S'[q\xeah%:R@'
tRp2747
ag11
aa(lp2748
S'9.83564758301'
p2749
ag6
(g8
S'\x9b\xb6+\xd8\x9a\x1d3@'
tRp2750
ag6
(g8
S'\x02~$\xeb=:R@'
tRp2751
ag11
aa(lp2752
S'9.27745056152'
p2753
ag6
(g8
S'\x9b\xb6+\xd8\x9a\x1d3@'
tRp2754
ag6
(g8
S'\xd1\xf6\xd2\x88K:R@'
tRp2755
ag11
aa(lp2756
S'9.33997497559'
p2757
ag6
(g8
S'\x9b\xb6+\xd8\x9a\x1d3@'
tRp2758
ag6
(g8
S'\xbe\xc0\x18\xfbP:R@'
tRp2759
ag11
aa(lp2760
S'9.68200029646'
p2761
ag6
(g8
S'\x9b\xb6+\xd8\x9a\x1d3@'
tRp2762
ag6
(g8
S'\xba\xb7y\xe3Q:R@'
tRp2763
ag11
aa(lp2764
S'9.87859344482'
p2765
ag6
(g8
S'\x9b\xb6+\xd8\x9a\x1d3@'
tRp2766
ag6
(g8
S'\xb7\xae\xda\xcbR:R@'
tRp2767
ag11
aa(lp2768
S'10.0202159266'
p2769
ag6
(g8
S'\xa9\xa3`\xc1\x9c\x1d3@'
tRp2770
ag6
(g8
S'\x82\xdd^\x84\x1a:R@'
tRp2771
ag11
aa(lp2772
S'10.173924764'
p2773
ag6
(g8
S'\xa9\xa3`\xc1\x9c\x1d3@'
tRp2774
ag6
(g8
S'\x7f\xd4\xbfl\x1b:R@'
tRp2775
ag11
aa(lp2776
S'10.0835859026'
p2777
ag6
(g8
S'\xa9\xa3`\xc1\x9c\x1d3@'
tRp2778
ag6
(g8
S'{\xcb U\x1c:R@'
tRp2779
ag11
aa(lp2780
S'9.89714050293'
p2781
ag6
(g8
S'\xa9\xa3`\xc1\x9c\x1d3@'
tRp2782
ag6
(g8
S'x\xc2\x81=\x1d:R@'
tRp2783
ag11
aa(lp2784
S'10.2910671234'
p2785
ag6
(g8
S'\xa9\xa3`\xc1\x9c\x1d3@'
tRp2786
ag6
(g8
S'WhKQ&:R@'
tRp2787
ag11
aa(lp2788
S'11.0916900635'
p2789
ag6
(g8
S'\xa9\xa3`\xc1\x9c\x1d3@'
tRp2790
ag6
(g8
S"T_\xac9':R@"
tRp2791
ag11
aa(lp2792
S'9.96141052246'
p2793
ag6
(g8
S'\xa9\xa3`\xc1\x9c\x1d3@'
tRp2794
ag6
(g8
S'\x02~$\xeb=:R@'
tRp2795
ag11
aa(lp2796
S'10.1320037842'
p2797
ag6
(g8
S'\xa9\xa3`\xc1\x9c\x1d3@'
tRp2798
ag6
(g8
S'\xd1\xf6\xd2\x88K:R@'
tRp2799
ag11
aa(lp2800
S'10.1683044434'
p2801
ag6
(g8
S'\xa9\xa3`\xc1\x9c\x1d3@'
tRp2802
ag6
(g8
S'\xbe\xc0\x18\xfbP:R@'
tRp2803
ag11
aa(lp2804
S'9.09614562988'
p2805
ag6
(g8
S'\xa9\xa3`\xc1\x9c\x1d3@'
tRp2806
ag6
(g8
S'\xba\xb7y\xe3Q:R@'
tRp2807
ag11
aa(lp2808
S'10.7495117188'
p2809
ag6
(g8
S'\xa9\xa3`\xc1\x9c\x1d3@'
tRp2810
ag6
(g8
S'\xb7\xae\xda\xcbR:R@'
tRp2811
ag11
aa(lp2812
S'9.98192080329'
p2813
ag6
(g8
S'\xb6\x90\x95\xaa\x9e\x1d3@'
tRp2814
ag6
(g8
S'{\xcb U\x1c:R@'
tRp2815
ag11
aa(lp2816
S'10.0189361572'
p2817
ag6
(g8
S'\xb6\x90\x95\xaa\x9e\x1d3@'
tRp2818
ag6
(g8
S'x\xc2\x81=\x1d:R@'
tRp2819
ag11
aa(lp2820
S'10.4161275228'
p2821
ag6
(g8
S'\xb6\x90\x95\xaa\x9e\x1d3@'
tRp2822
ag6
(g8
S'u\xb9\xe2%\x1e:R@'
tRp2823
ag11
aa(lp2824
S'9.5772450765'
p2825
ag6
(g8
S'\xb6\x90\x95\xaa\x9e\x1d3@'
tRp2826
ag6
(g8
S"T_\xac9':R@"
tRp2827
ag11
aa(lp2828
S'10.9409332275'
p2829
ag6
(g8
S'\xb6\x90\x95\xaa\x9e\x1d3@'
tRp2830
ag6
(g8
S'\x02~$\xeb=:R@'
tRp2831
ag11
aa(lp2832
S'10.2930755615'
p2833
ag6
(g8
S'\xb6\x90\x95\xaa\x9e\x1d3@'
tRp2834
ag6
(g8
S'\xd1\xf6\xd2\x88K:R@'
tRp2835
ag11
aa(lp2836
S'9.91126403809'
p2837
ag6
(g8
S'\xb6\x90\x95\xaa\x9e\x1d3@'
tRp2838
ag6
(g8
S'\xbe\xc0\x18\xfbP:R@'
tRp2839
ag11
aa(lp2840
S'9.80271911621'
p2841
ag6
(g8
S'\xb6\x90\x95\xaa\x9e\x1d3@'
tRp2842
ag6
(g8
S'\xba\xb7y\xe3Q:R@'
tRp2843
ag11
aa(lp2844
S'8.44709777832'
p2845
ag6
(g8
S'\xb6\x90\x95\xaa\x9e\x1d3@'
tRp2846
ag6
(g8
S'\xb7\xae\xda\xcbR:R@'
tRp2847
ag11
aa(lp2848
S'10.8569590251'
p2849
ag6
(g8
S'\xc3}\xca\x93\xa0\x1d3@'
tRp2850
ag6
(g8
S'x\xc2\x81=\x1d:R@'
tRp2851
ag11
aa(lp2852
S'9.65428597586'
p2853
ag6
(g8
S'\xc3}\xca\x93\xa0\x1d3@'
tRp2854
ag6
(g8
S'u\xb9\xe2%\x1e:R@'
tRp2855
ag11
aa(lp2856
S'10.0042805391'
p2857
ag6
(g8
S'\xc3}\xca\x93\xa0\x1d3@'
tRp2858
ag6
(g8
S'q\xb0C\x0e\x1f:R@'
tRp2859
ag11
aa(lp2860
S'10.6131032308'
p2861
ag6
(g8
S'\xc3}\xca\x93\xa0\x1d3@'
tRp2862
ag6
(g8
S"T_\xac9':R@"
tRp2863
ag11
aa(lp2864
S'10.725112915'
p2865
ag6
(g8
S'\xc3}\xca\x93\xa0\x1d3@'
tRp2866
ag6
(g8
S'\x02~$\xeb=:R@'
tRp2867
ag11
aa(lp2868
S'9.20722961426'
p2869
ag6
(g8
S'\xc3}\xca\x93\xa0\x1d3@'
tRp2870
ag6
(g8
S'\xfft\x85\xd3>:R@'
tRp2871
ag11
aa(lp2872
S'7.60008239746'
p2873
ag6
(g8
S'\xc3}\xca\x93\xa0\x1d3@'
tRp2874
ag6
(g8
S'\xd1\xf6\xd2\x88K:R@'
tRp2875
ag11
aa(lp2876
S'10.498739624'
p2877
ag6
(g8
S'\xc3}\xca\x93\xa0\x1d3@'
tRp2878
ag6
(g8
S'\xbe\xc0\x18\xfbP:R@'
tRp2879
ag11
aa(lp2880
S'9.93439691717'
p2881
ag6
(g8
S'\xc3}\xca\x93\xa0\x1d3@'
tRp2882
ag6
(g8
S'\xba\xb7y\xe3Q:R@'
tRp2883
ag11
aa(lp2884
S'8.85109965007'
p2885
ag6
(g8
S'\xd0j\xff|\xa2\x1d3@'
tRp2886
ag6
(g8
S'u\xb9\xe2%\x1e:R@'
tRp2887
ag11
aa(lp2888
S'10.7385450091'
p2889
ag6
(g8
S'\xd0j\xff|\xa2\x1d3@'
tRp2890
ag6
(g8
S'q\xb0C\x0e\x1f:R@'
tRp2891
ag11
aa(lp2892
S'10.0886436911'
p2893
ag6
(g8
S'\xd0j\xff|\xa2\x1d3@'
tRp2894
ag6
(g8
S'n\xa7\xa4\xf6\x1f:R@'
tRp2895
ag11
aa(lp2896
S'10.2981007894'
p2897
ag6
(g8
S'\xd0j\xff|\xa2\x1d3@'
tRp2898
ag6
(g8
S'QV\r"(:R@'
tRp2899
ag11
aa(lp2900
S'9.2794342041'
p2901
ag6
(g8
S'\xd0j\xff|\xa2\x1d3@'
tRp2902
ag6
(g8
S'\xfft\x85\xd3>:R@'
tRp2903
ag11
aa(lp2904
S'10.5977630615'
p2905
ag6
(g8
S'\xd0j\xff|\xa2\x1d3@'
tRp2906
ag6
(g8
S'\xd1\xf6\xd2\x88K:R@'
tRp2907
ag11
aa(lp2908
S'9.74368591309'
p2909
ag6
(g8
S'\xd0j\xff|\xa2\x1d3@'
tRp2910
ag6
(g8
S'\xbe\xc0\x18\xfbP:R@'
tRp2911
ag11
aa(lp2912
S'9.82949829102'
p2913
ag6
(g8
S'\xd0j\xff|\xa2\x1d3@'
tRp2914
ag6
(g8
S'\xba\xb7y\xe3Q:R@'
tRp2915
ag11
aa(lp2916
S'8.79879760742'
p2917
ag6
(g8
S'\xd0j\xff|\xa2\x1d3@'
tRp2918
ag6
(g8
S'\xb7\xae\xda\xcbR:R@'
tRp2919
ag11
aa(lp2920
S'8.63012186686'
p2921
ag6
(g8
S'\xdeW4f\xa4\x1d3@'
tRp2922
ag6
(g8
S'q\xb0C\x0e\x1f:R@'
tRp2923
ag11
aa(lp2924
S'9.69007655552'
p2925
ag6
(g8
S'\xdeW4f\xa4\x1d3@'
tRp2926
ag6
(g8
S'k\x9e\x05\xdf :R@'
tRp2927
ag11
aa(lp2928
S'10.5107307434'
p2929
ag6
(g8
S'\xdeW4f\xa4\x1d3@'
tRp2930
ag6
(g8
S'QV\r"(:R@'
tRp2931
ag11
aa(lp2932
S'10.5743560791'
p2933
ag6
(g8
S'\xdeW4f\xa4\x1d3@'
tRp2934
ag6
(g8
S'\xfft\x85\xd3>:R@'
tRp2935
ag11
aa(lp2936
S'10.4339141846'
p2937
ag6
(g8
S'\xdeW4f\xa4\x1d3@'
tRp2938
ag6
(g8
S'\xd1\xf6\xd2\x88K:R@'
tRp2939
ag11
aa(lp2940
S'9.27522888184'
p2941
ag6
(g8
S'\xdeW4f\xa4\x1d3@'
tRp2942
ag6
(g8
S'\xbe\xc0\x18\xfbP:R@'
tRp2943
ag11
aa(lp2944
S'10.886026001'
p2945
ag6
(g8
S'\xdeW4f\xa4\x1d3@'
tRp2946
ag6
(g8
S'\xba\xb7y\xe3Q:R@'
tRp2947
ag11
aa(lp2948
S'8.64806910924'
p2949
ag6
(g8
S'\xdeW4f\xa4\x1d3@'
tRp2950
ag6
(g8
S'\xb7\xae\xda\xcbR:R@'
tRp2951
ag11
aa(lp2952
S'9.44976298014'
p2953
ag6
(g8
S'\xebDiO\xa6\x1d3@'
tRp2954
ag6
(g8
S'n\xa7\xa4\xf6\x1f:R@'
tRp2955
ag11
aa(lp2956
S'10.8083068848'
p2957
ag6
(g8
S'\xebDiO\xa6\x1d3@'
tRp2958
ag6
(g8
S'k\x9e\x05\xdf :R@'
tRp2959
ag11
aa(lp2960
S'10.0277491978'
p2961
ag6
(g8
S'\xebDiO\xa6\x1d3@'
tRp2962
ag6
(g8
S'h\x95f\xc7!:R@'
tRp2963
ag11
aa(lp2964
S'9.56230163574'
p2965
ag6
(g8
S'\xebDiO\xa6\x1d3@'
tRp2966
ag6
(g8
S'QV\r"(:R@'
tRp2967
ag11
aa(lp2968
S'10.2323760986'
p2969
ag6
(g8
S'\xebDiO\xa6\x1d3@'
tRp2970
ag6
(g8
S'NMn\n):R@'
tRp2971
ag11
aa(lp2972
S'8.9545135498'
p2973
ag6
(g8
S'\xebDiO\xa6\x1d3@'
tRp2974
ag6
(g8
S'\xfck\xe6\xbb?:R@'
tRp2975
ag11
aa(lp2976
S'10.9292297363'
p2977
ag6
(g8
S'\xebDiO\xa6\x1d3@'
tRp2978
ag6
(g8
S'\xd1\xf6\xd2\x88K:R@'
tRp2979
ag11
aa(lp2980
S'10.3813873291'
p2981
ag6
(g8
S'\xebDiO\xa6\x1d3@'
tRp2982
ag6
(g8
S'\xbe\xc0\x18\xfbP:R@'
tRp2983
ag11
aa(lp2984
S'10.018737793'
p2985
ag6
(g8
S'\xebDiO\xa6\x1d3@'
tRp2986
ag6
(g8
S'\xba\xb7y\xe3Q:R@'
tRp2987
ag11
aa(lp2988
S'9.46249607631'
p2989
ag6
(g8
S'\xebDiO\xa6\x1d3@'
tRp2990
ag6
(g8
S'\xb7\xae\xda\xcbR:R@'
tRp2991
ag11
aa(lp2992
S'9.37901306152'
p2993
ag6
(g8
S'\xf81\x9e8\xa8\x1d3@'
tRp2994
ag6
(g8
S'k\x9e\x05\xdf :R@'
tRp2995
ag11
aa(lp2996
S'10.707909324'
p2997
ag6
(g8
S'\xf81\x9e8\xa8\x1d3@'
tRp2998
ag6
(g8
S'h\x95f\xc7!:R@'
tRp2999
ag11
aa(lp3000
S'10.5224151611'
p3001
ag6
(g8
S'\xf81\x9e8\xa8\x1d3@'
tRp3002
ag6
(g8
S'd\x8c\xc7\xaf":R@'
tRp3003
ag11
aa(lp3004
S'10.5262196859'
p3005
ag6
(g8
S'\xf81\x9e8\xa8\x1d3@'
tRp3006
ag6
(g8
S'NMn\n):R@'
tRp3007
ag11
aa(lp3008
S'10.9016571045'
p3009
ag6
(g8
S'\xf81\x9e8\xa8\x1d3@'
tRp3010
ag6
(g8
S'\xfck\xe6\xbb?:R@'
tRp3011
ag11
aa(lp3012
S'9.51517028809'
p3013
ag6
(g8
S'\xf81\x9e8\xa8\x1d3@'
tRp3014
ag6
(g8
S'\xc1\xc9\xb7\x12P:R@'
tRp3015
ag11
aa(lp3016
S'9.72178649902'
p3017
ag6
(g8
S'\xf81\x9e8\xa8\x1d3@'
tRp3018
ag6
(g8
S'\xbe\xc0\x18\xfbP:R@'
tRp3019
ag11
aa(lp3020
S'6.67848205566'
p3021
ag6
(g8
S'\xf81\x9e8\xa8\x1d3@'
tRp3022
ag6
(g8
S'\xba\xb7y\xe3Q:R@'
tRp3023
ag11
aa(lp3024
S'8.74900817871'
p3025
ag6
(g8
S'\xf81\x9e8\xa8\x1d3@'
tRp3026
ag6
(g8
S'\xb7\xae\xda\xcbR:R@'
tRp3027
ag11
aa(lp3028
S'9.3487294515'
p3029
ag6
(g8
S'\x06\x1f\xd3!\xaa\x1d3@'
tRp3030
ag6
(g8
S'h\x95f\xc7!:R@'
tRp3031
ag11
aa(lp3032
S'10.7150504372'
p3033
ag6
(g8
S'\x06\x1f\xd3!\xaa\x1d3@'
tRp3034
ag6
(g8
S'd\x8c\xc7\xaf":R@'
tRp3035
ag11
aa(lp3036
S'10.0613555908'
p3037
ag6
(g8
S'\x06\x1f\xd3!\xaa\x1d3@'
tRp3038
ag6
(g8
S'a\x83(\x98#:R@'
tRp3039
ag11
aa(lp3040
S'10.0810241699'
p3041
ag6
(g8
S'\x06\x1f\xd3!\xaa\x1d3@'
tRp3042
ag6
(g8
S'NMn\n):R@'
tRp3043
ag11
aa(lp3044
S'10.6671905518'
p3045
ag6
(g8
S'\x06\x1f\xd3!\xaa\x1d3@'
tRp3046
ag6
(g8
S'JD\xcf\xf2):R@'
tRp3047
ag11
aa(lp3048
S'11.0218658447'
p3049
ag6
(g8
S'\x06\x1f\xd3!\xaa\x1d3@'
tRp3050
ag6
(g8
S'\xfck\xe6\xbb?:R@'
tRp3051
ag11
aa(lp3052
S'9.87294006348'
p3053
ag6
(g8
S'\x06\x1f\xd3!\xaa\x1d3@'
tRp3054
ag6
(g8
S'\xd1\xf6\xd2\x88K:R@'
tRp3055
ag11
aa(lp3056
S'10.5004058838'
p3057
ag6
(g8
S'\x06\x1f\xd3!\xaa\x1d3@'
tRp3058
ag6
(g8
S'\xc1\xc9\xb7\x12P:R@'
tRp3059
ag11
aa(lp3060
S'9.6595993042'
p3061
ag6
(g8
S'\x06\x1f\xd3!\xaa\x1d3@'
tRp3062
ag6
(g8
S'\xbe\xc0\x18\xfbP:R@'
tRp3063
ag11
aa(lp3064
S'8.77592904227'
p3065
ag6
(g8
S'\x06\x1f\xd3!\xaa\x1d3@'
tRp3066
ag6
(g8
S'\xb7\xae\xda\xcbR:R@'
tRp3067
ag11
aa(lp3068
S'9.8668568929'
p3069
ag6
(g8
S'\x13\x0c\x08\x0b\xac\x1d3@'
tRp3070
ag6
(g8
S'd\x8c\xc7\xaf":R@'
tRp3071
ag11
aa(lp3072
S'9.97509765625'
p3073
ag6
(g8
S'\x13\x0c\x08\x0b\xac\x1d3@'
tRp3074
ag6
(g8
S'a\x83(\x98#:R@'
tRp3075
ag11
aa(lp3076
S'9.85082244873'
p3077
ag6
(g8
S'\x13\x0c\x08\x0b\xac\x1d3@'
tRp3078
ag6
(g8
S'^z\x89\x80$:R@'
tRp3079
ag11
aa(lp3080
S'10.2773386637'
p3081
ag6
(g8
S'\x13\x0c\x08\x0b\xac\x1d3@'
tRp3082
ag6
(g8
S'JD\xcf\xf2):R@'
tRp3083
ag11
aa(lp3084
S'9.03207397461'
p3085
ag6
(g8
S'\x13\x0c\x08\x0b\xac\x1d3@'
tRp3086
ag6
(g8
S'\xf8bG\xa4@:R@'
tRp3087
ag11
aa(lp3088
S'10.2196807861'
p3089
ag6
(g8
S'\x13\x0c\x08\x0b\xac\x1d3@'
tRp3090
ag6
(g8
S'\xd1\xf6\xd2\x88K:R@'
tRp3091
ag11
aa(lp3092
S'9.21381530762'
p3093
ag6
(g8
S'\x13\x0c\x08\x0b\xac\x1d3@'
tRp3094
ag6
(g8
S'\xc1\xc9\xb7\x12P:R@'
tRp3095
ag11
aa(lp3096
S'10.5067138672'
p3097
ag6
(g8
S'\x13\x0c\x08\x0b\xac\x1d3@'
tRp3098
ag6
(g8
S'\xbe\xc0\x18\xfbP:R@'
tRp3099
ag11
aa(lp3100
S'9.09515380859'
p3101
ag6
(g8
S'\x13\x0c\x08\x0b\xac\x1d3@'
tRp3102
ag6
(g8
S'\xb7\xae\xda\xcbR:R@'
tRp3103
ag11
aa(lp3104
S'9.26523132324'
p3105
ag6
(g8
S'\x13\x0c\x08\x0b\xac\x1d3@'
tRp3106
ag6
(g8
S'\xb4\xa5;\xb4S:R@'
tRp3107
ag11
aa(lp3108
S'9.93826802572'
p3109
ag6
(g8
S' \xf9<\xf4\xad\x1d3@'
tRp3110
ag6
(g8
S'a\x83(\x98#:R@'
tRp3111
ag11
aa(lp3112
S'10.5369720459'
p3113
ag6
(g8
S' \xf9<\xf4\xad\x1d3@'
tRp3114
ag6
(g8
S'^z\x89\x80$:R@'
tRp3115
ag11
aa(lp3116
S'9.54552001953'
p3117
ag6
(g8
S' \xf9<\xf4\xad\x1d3@'
tRp3118
ag6
(g8
S'[q\xeah%:R@'
tRp3119
ag11
aa(lp3120
S'10.0268565587'
p3121
ag6
(g8
S' \xf9<\xf4\xad\x1d3@'
tRp3122
ag6
(g8
S'JD\xcf\xf2):R@'
tRp3123
ag11
aa(lp3124
S'9.16358947754'
p3125
ag6
(g8
S' \xf9<\xf4\xad\x1d3@'
tRp3126
ag6
(g8
S'G;0\xdb*:R@'
tRp3127
ag11
aa(lp3128
S'9.76066589355'
p3129
ag6
(g8
S' \xf9<\xf4\xad\x1d3@'
tRp3130
ag6
(g8
S'\xf8bG\xa4@:R@'
tRp3131
ag11
aa(lp3132
S'9.59761047363'
p3133
ag6
(g8
S' \xf9<\xf4\xad\x1d3@'
tRp3134
ag6
(g8
S'\xd1\xf6\xd2\x88K:R@'
tRp3135
ag11
aa(lp3136
S'8.67656555176'
p3137
ag6
(g8
S' \xf9<\xf4\xad\x1d3@'
tRp3138
ag6
(g8
S'\xc1\xc9\xb7\x12P:R@'
tRp3139
ag11
aa(lp3140
S'10.6917877197'
p3141
ag6
(g8
S' \xf9<\xf4\xad\x1d3@'
tRp3142
ag6
(g8
S'\xbe\xc0\x18\xfbP:R@'
tRp3143
ag11
aa(lp3144
S'9.47616195679'
p3145
ag6
(g8
S'.\xe6q\xdd\xaf\x1d3@'
tRp3146
ag6
(g8
S'^z\x89\x80$:R@'
tRp3147
ag11
aa(lp3148
S'10.7364196777'
p3149
ag6
(g8
S'.\xe6q\xdd\xaf\x1d3@'
tRp3150
ag6
(g8
S'[q\xeah%:R@'
tRp3151
ag11
aa(lp3152
S'10.5258229574'
p3153
ag6
(g8
S'.\xe6q\xdd\xaf\x1d3@'
tRp3154
ag6
(g8
S'WhKQ&:R@'
tRp3155
ag11
aa(lp3156
S'10.1007283529'
p3157
ag6
(g8
S'.\xe6q\xdd\xaf\x1d3@'
tRp3158
ag6
(g8
S'G;0\xdb*:R@'
tRp3159
ag11
aa(lp3160
S'9.97351074219'
p3161
ag6
(g8
S'.\xe6q\xdd\xaf\x1d3@'
tRp3162
ag6
(g8
S'\xf8bG\xa4@:R@'
tRp3163
ag11
aa(lp3164
S'10.8895965576'
p3165
ag6
(g8
S'.\xe6q\xdd\xaf\x1d3@'
tRp3166
ag6
(g8
S'\xc1\xc9\xb7\x12P:R@'
tRp3167
ag11
aa(lp3168
S'10.4103088379'
p3169
ag6
(g8
S'.\xe6q\xdd\xaf\x1d3@'
tRp3170
ag6
(g8
S'\xbe\xc0\x18\xfbP:R@'
tRp3171
ag11
aa(lp3172
S'9.49401473999'
p3173
ag6
(g8
S';\xd3\xa6\xc6\xb1\x1d3@'
tRp3174
ag6
(g8
S'[q\xeah%:R@'
tRp3175
ag11
aa(lp3176
S'9.97802644617'
p3177
ag6
(g8
S';\xd3\xa6\xc6\xb1\x1d3@'
tRp3178
ag6
(g8
S'WhKQ&:R@'
tRp3179
ag11
aa(lp3180
S'9.41743905204'
p3181
ag6
(g8
S';\xd3\xa6\xc6\xb1\x1d3@'
tRp3182
ag6
(g8
S"T_\xac9':R@"
tRp3183
ag11
aa(lp3184
S'10.2129572818'
p3185
ag6
(g8
S';\xd3\xa6\xc6\xb1\x1d3@'
tRp3186
ag6
(g8
S'G;0\xdb*:R@'
tRp3187
ag11
aa(lp3188
S'10.2113494873'
p3189
ag6
(g8
S';\xd3\xa6\xc6\xb1\x1d3@'
tRp3190
ag6
(g8
S'\xf5Y\xa8\x8cA:R@'
tRp3191
ag11
aa(lp3192
S'8.56492614746'
p3193
ag6
(g8
S';\xd3\xa6\xc6\xb1\x1d3@'
tRp3194
ag6
(g8
S'\xd1\xf6\xd2\x88K:R@'
tRp3195
ag11
aa(lp3196
S'10.6305472634'
p3197
ag6
(g8
S';\xd3\xa6\xc6\xb1\x1d3@'
tRp3198
ag6
(g8
S'\xc1\xc9\xb7\x12P:R@'
tRp3199
ag11
aa(lp3200
S'10.0174625942'
p3201
ag6
(g8
S';\xd3\xa6\xc6\xb1\x1d3@'
tRp3202
ag6
(g8
S'\xb4\xa5;\xb4S:R@'
tRp3203
ag11
aa(lp3204
S'9.19319534302'
p3205
ag6
(g8
S'H\xc0\xdb\xaf\xb3\x1d3@'
tRp3206
ag6
(g8
S'WhKQ&:R@'
tRp3207
ag11
aa(lp3208
S'10.3900756836'
p3209
ag6
(g8
S'H\xc0\xdb\xaf\xb3\x1d3@'
tRp3210
ag6
(g8
S"T_\xac9':R@"
tRp3211
ag11
aa(lp3212
S'10.2515890939'
p3213
ag6
(g8
S'H\xc0\xdb\xaf\xb3\x1d3@'
tRp3214
ag6
(g8
S'QV\r"(:R@'
tRp3215
ag11
aa(lp3216
S'9.91037680886'
p3217
ag6
(g8
S'H\xc0\xdb\xaf\xb3\x1d3@'
tRp3218
ag6
(g8
S'G;0\xdb*:R@'
tRp3219
ag11
aa(lp3220
S'10.3427233015'
p3221
ag6
(g8
S'H\xc0\xdb\xaf\xb3\x1d3@'
tRp3222
ag6
(g8
S'D2\x91\xc3+:R@'
tRp3223
ag11
aa(lp3224
S'9.33100891113'
p3225
ag6
(g8
S'H\xc0\xdb\xaf\xb3\x1d3@'
tRp3226
ag6
(g8
S'\xf5Y\xa8\x8cA:R@'
tRp3227
ag11
aa(lp3228
S'10.3644866943'
p3229
ag6
(g8
S'H\xc0\xdb\xaf\xb3\x1d3@'
tRp3230
ag6
(g8
S'\xd1\xf6\xd2\x88K:R@'
tRp3231
ag11
aa(lp3232
S'9.39012145996'
p3233
ag6
(g8
S'H\xc0\xdb\xaf\xb3\x1d3@'
tRp3234
ag6
(g8
S'\xc1\xc9\xb7\x12P:R@'
tRp3235
ag11
aa(lp3236
S'7.81272888184'
p3237
ag6
(g8
S'H\xc0\xdb\xaf\xb3\x1d3@'
tRp3238
ag6
(g8
S'\xb4\xa5;\xb4S:R@'
tRp3239
ag11
aa(lp3240
S'10.3688011169'
p3241
ag6
(g8
S'V\xad\x10\x99\xb5\x1d3@'
tRp3242
ag6
(g8
S"T_\xac9':R@"
tRp3243
ag11
aa(lp3244
S'9.9445892334'
p3245
ag6
(g8
S'V\xad\x10\x99\xb5\x1d3@'
tRp3246
ag6
(g8
S'QV\r"(:R@'
tRp3247
ag11
aa(lp3248
S'10.6031188965'
p3249
ag6
(g8
S'V\xad\x10\x99\xb5\x1d3@'
tRp3250
ag6
(g8
S'NMn\n):R@'
tRp3251
ag11
aa(lp3252
S'10.4387542725'
p3253
ag6
(g8
S'V\xad\x10\x99\xb5\x1d3@'
tRp3254
ag6
(g8
S'G;0\xdb*:R@'
tRp3255
ag11
aa(lp3256
S'10.0544433594'
p3257
ag6
(g8
S'V\xad\x10\x99\xb5\x1d3@'
tRp3258
ag6
(g8
S'D2\x91\xc3+:R@'
tRp3259
ag11
aa(lp3260
S'10.3125152588'
p3261
ag6
(g8
S'V\xad\x10\x99\xb5\x1d3@'
tRp3262
ag6
(g8
S'\xf5Y\xa8\x8cA:R@'
tRp3263
ag11
aa(lp3264
S'8.9010345459'
p3265
ag6
(g8
S'V\xad\x10\x99\xb5\x1d3@'
tRp3266
ag6
(g8
S'\xc4\xd2V*O:R@'
tRp3267
ag11
aa(lp3268
S'11.0672912598'
p3269
ag6
(g8
S'V\xad\x10\x99\xb5\x1d3@'
tRp3270
ag6
(g8
S'\xc1\xc9\xb7\x12P:R@'
tRp3271
ag11
aa(lp3272
S'7.58302307129'
p3273
ag6
(g8
S'V\xad\x10\x99\xb5\x1d3@'
tRp3274
ag6
(g8
S'\xb4\xa5;\xb4S:R@'
tRp3275
ag11
aa(lp3276
S'5.20899963379'
p3277
ag6
(g8
S'V\xad\x10\x99\xb5\x1d3@'
tRp3278
ag6
(g8
S'\xb1\x9c\x9c\x9cT:R@'
tRp3279
ag11
aa(lp3280
S'9.92471313477'
p3281
ag6
(g8
S'c\x9aE\x82\xb7\x1d3@'
tRp3282
ag6
(g8
S'QV\r"(:R@'
tRp3283
ag11
aa(lp3284
S'10.1469333046'
p3285
ag6
(g8
S'c\x9aE\x82\xb7\x1d3@'
tRp3286
ag6
(g8
S'NMn\n):R@'
tRp3287
ag11
aa(lp3288
S'10.1247833252'
p3289
ag6
(g8
S'c\x9aE\x82\xb7\x1d3@'
tRp3290
ag6
(g8
S'JD\xcf\xf2):R@'
tRp3291
ag11
aa(lp3292
S'10.2903289795'
p3293
ag6
(g8
S'c\x9aE\x82\xb7\x1d3@'
tRp3294
ag6
(g8
S'D2\x91\xc3+:R@'
tRp3295
ag11
aa(lp3296
S'10.1673126221'
p3297
ag6
(g8
S'c\x9aE\x82\xb7\x1d3@'
tRp3298
ag6
(g8
S'@)\xf2\xab,:R@'
tRp3299
ag11
aa(lp3300
S'8.3705291748'
p3301
ag6
(g8
S'c\x9aE\x82\xb7\x1d3@'
tRp3302
ag6
(g8
S'\xd1\xf6\xd2\x88K:R@'
tRp3303
ag11
aa(lp3304
S'9.3149810791'
p3305
ag6
(g8
S'c\x9aE\x82\xb7\x1d3@'
tRp3306
ag6
(g8
S'\xc4\xd2V*O:R@'
tRp3307
ag11
aa(lp3308
S'8.61193847656'
p3309
ag6
(g8
S'c\x9aE\x82\xb7\x1d3@'
tRp3310
ag6
(g8
S'\xc1\xc9\xb7\x12P:R@'
tRp3311
ag11
aa(lp3312
S'8.41428266253'
p3313
ag6
(g8
S'c\x9aE\x82\xb7\x1d3@'
tRp3314
ag6
(g8
S'\xb1\x9c\x9c\x9cT:R@'
tRp3315
ag11
aa(lp3316
S'9.67641067505'
p3317
ag6
(g8
S'p\x87zk\xb9\x1d3@'
tRp3318
ag6
(g8
S'NMn\n):R@'
tRp3319
ag11
aa(lp3320
S'10.5087258475'
p3321
ag6
(g8
S'p\x87zk\xb9\x1d3@'
tRp3322
ag6
(g8
S'JD\xcf\xf2):R@'
tRp3323
ag11
aa(lp3324
S'9.36116027832'
p3325
ag6
(g8
S'p\x87zk\xb9\x1d3@'
tRp3326
ag6
(g8
S'G;0\xdb*:R@'
tRp3327
ag11
aa(lp3328
S'9.76998901367'
p3329
ag6
(g8
S'p\x87zk\xb9\x1d3@'
tRp3330
ag6
(g8
S'D2\x91\xc3+:R@'
tRp3331
ag11
aa(lp3332
S'10.2768758138'
p3333
ag6
(g8
S'p\x87zk\xb9\x1d3@'
tRp3334
ag6
(g8
S'@)\xf2\xab,:R@'
tRp3335
ag11
aa(lp3336
S'9.51945495605'
p3337
ag6
(g8
S'p\x87zk\xb9\x1d3@'
tRp3338
ag6
(g8
S'\xf2P\tuB:R@'
tRp3339
ag11
aa(lp3340
S'10.775100708'
p3341
ag6
(g8
S'p\x87zk\xb9\x1d3@'
tRp3342
ag6
(g8
S'\xc1\xc9\xb7\x12P:R@'
tRp3343
ag11
aa(lp3344
S'10.8737373352'
p3345
ag6
(g8
S'~t\xafT\xbb\x1d3@'
tRp3346
ag6
(g8
S'JD\xcf\xf2):R@'
tRp3347
ag11
aa(lp3348
S'9.22504063656'
p3349
ag6
(g8
S'~t\xafT\xbb\x1d3@'
tRp3350
ag6
(g8
S'G;0\xdb*:R@'
tRp3351
ag11
aa(lp3352
S'10.2240447998'
p3353
ag6
(g8
S'~t\xafT\xbb\x1d3@'
tRp3354
ag6
(g8
S'D2\x91\xc3+:R@'
tRp3355
ag11
aa(lp3356
S'9.96354293823'
p3357
ag6
(g8
S'~t\xafT\xbb\x1d3@'
tRp3358
ag6
(g8
S'@)\xf2\xab,:R@'
tRp3359
ag11
aa(lp3360
S'10.2139943441'
p3361
ag6
(g8
S'~t\xafT\xbb\x1d3@'
tRp3362
ag6
(g8
S'= S\x94-:R@'
tRp3363
ag11
aa(lp3364
S'9.04377746582'
p3365
ag6
(g8
S'~t\xafT\xbb\x1d3@'
tRp3366
ag6
(g8
S'\xd1\xf6\xd2\x88K:R@'
tRp3367
ag11
aa(lp3368
S'9.42971496582'
p3369
ag6
(g8
S'~t\xafT\xbb\x1d3@'
tRp3370
ag6
(g8
S'\xc4\xd2V*O:R@'
tRp3371
ag11
aa(lp3372
S'10.7235656738'
p3373
ag6
(g8
S'\x8ba\xe4=\xbd\x1d3@'
tRp3374
ag6
(g8
S'G;0\xdb*:R@'
tRp3375
ag11
aa(lp3376
S'10.9934997559'
p3377
ag6
(g8
S'\x8ba\xe4=\xbd\x1d3@'
tRp3378
ag6
(g8
S'D2\x91\xc3+:R@'
tRp3379
ag11
aa(lp3380
S'7.60722351074'
p3381
ag6
(g8
S'\x8ba\xe4=\xbd\x1d3@'
tRp3382
ag6
(g8
S'@)\xf2\xab,:R@'
tRp3383
ag11
aa(lp3384
S'10.031374763'
p3385
ag6
(g8
S'\x8ba\xe4=\xbd\x1d3@'
tRp3386
ag6
(g8
S'= S\x94-:R@'
tRp3387
ag11
aa(lp3388
S'7.9793548584'
p3389
ag6
(g8
S'\x8ba\xe4=\xbd\x1d3@'
tRp3390
ag6
(g8
S'\xf2P\tuB:R@'
tRp3391
ag11
aa(lp3392
S'9.80430603027'
p3393
ag6
(g8
S'\x8ba\xe4=\xbd\x1d3@'
tRp3394
ag6
(g8
S'\xc4\xd2V*O:R@'
tRp3395
ag11
aa(lp3396
S'9.1043182373'
p3397
ag6
(g8
S'\x8ba\xe4=\xbd\x1d3@'
tRp3398
ag6
(g8
S'\xb1\x9c\x9c\x9cT:R@'
tRp3399
ag11
aa(lp3400
S'7.64610290527'
p3401
ag6
(g8
S'\x8ba\xe4=\xbd\x1d3@'
tRp3402
ag6
(g8
S'\xad\x93\xfd\x84U:R@'
tRp3403
ag11
aa(lp3404
S'10.045084173'
p3405
ag6
(g8
S"\x98N\x19'\xbf\x1d3@"
tRp3406
ag6
(g8
S'D2\x91\xc3+:R@'
tRp3407
ag11
aa(lp3408
S'10.0484924316'
p3409
ag6
(g8
S"\x98N\x19'\xbf\x1d3@"
tRp3410
ag6
(g8
S'@)\xf2\xab,:R@'
tRp3411
ag11
aa(lp3412
S'10.1544036865'
p3413
ag6
(g8
S"\x98N\x19'\xbf\x1d3@"
tRp3414
ag6
(g8
S'= S\x94-:R@'
tRp3415
ag11
aa(lp3416
S'8.89976501465'
p3417
ag6
(g8
S"\x98N\x19'\xbf\x1d3@"
tRp3418
ag6
(g8
S'\xefGj]C:R@'
tRp3419
ag11
aa(lp3420
S'9.31504058838'
p3421
ag6
(g8
S"\x98N\x19'\xbf\x1d3@"
tRp3422
ag6
(g8
S'\xce\xed3qL:R@'
tRp3423
ag11
aa(lp3424
S'9.47744140625'
p3425
ag6
(g8
S"\x98N\x19'\xbf\x1d3@"
tRp3426
ag6
(g8
S'\xc4\xd2V*O:R@'
tRp3427
ag11
aa(lp3428
S'8.45463562012'
p3429
ag6
(g8
S"\x98N\x19'\xbf\x1d3@"
tRp3430
ag6
(g8
S'\xad\x93\xfd\x84U:R@'
tRp3431
ag11
aa(lp3432
S'10.1297225952'
p3433
ag6
(g8
S'\xa6;N\x10\xc1\x1d3@'
tRp3434
ag6
(g8
S'@)\xf2\xab,:R@'
tRp3435
ag11
aa(lp3436
S'10.1187266032'
p3437
ag6
(g8
S'\xa6;N\x10\xc1\x1d3@'
tRp3438
ag6
(g8
S'= S\x94-:R@'
tRp3439
ag11
aa(lp3440
S'10.5598675537'
p3441
ag6
(g8
S'\xa6;N\x10\xc1\x1d3@'
tRp3442
ag6
(g8
S':\x17\xb4|.:R@'
tRp3443
ag11
aa(lp3444
S'9.8584197998'
p3445
ag6
(g8
S'\xa6;N\x10\xc1\x1d3@'
tRp3446
ag6
(g8
S'7\x0e\x15e/:R@'
tRp3447
ag11
aa(lp3448
S'9.25225830078'
p3449
ag6
(g8
S'\xa6;N\x10\xc1\x1d3@'
tRp3450
ag6
(g8
S'\xc4\xd2V*O:R@'
tRp3451
ag11
aa(lp3452
S'10.2782832554'
p3453
ag6
(g8
S'\xa6;N\x10\xc1\x1d3@'
tRp3454
ag6
(g8
S'\xad\x93\xfd\x84U:R@'
tRp3455
ag11
aa(lp3456
S'10.1629769461'
p3457
ag6
(g8
S'\xb3(\x83\xf9\xc2\x1d3@'
tRp3458
ag6
(g8
S'= S\x94-:R@'
tRp3459
ag11
aa(lp3460
S'9.67231941223'
p3461
ag6
(g8
S'\xb3(\x83\xf9\xc2\x1d3@'
tRp3462
ag6
(g8
S':\x17\xb4|.:R@'
tRp3463
ag11
aa(lp3464
S'9.39805603027'
p3465
ag6
(g8
S'\xb3(\x83\xf9\xc2\x1d3@'
tRp3466
ag6
(g8
S'7\x0e\x15e/:R@'
tRp3467
ag11
aa(lp3468
S'9.97224617004'
p3469
ag6
(g8
S'\xb3(\x83\xf9\xc2\x1d3@'
tRp3470
ag6
(g8
S'3\x05vM0:R@'
tRp3471
ag11
aa(lp3472
S'8.87953186035'
p3473
ag6
(g8
S'\xb3(\x83\xf9\xc2\x1d3@'
tRp3474
ag6
(g8
S'\xeb>\xcbED:R@'
tRp3475
ag11
aa(lp3476
S'8.28443908691'
p3477
ag6
(g8
S'\xb3(\x83\xf9\xc2\x1d3@'
tRp3478
ag6
(g8
S'\xce\xed3qL:R@'
tRp3479
ag11
aa(lp3480
S'8.83494949341'
p3481
ag6
(g8
S'\xb3(\x83\xf9\xc2\x1d3@'
tRp3482
ag6
(g8
S'\xc7\xdb\xf5AN:R@'
tRp3483
ag11
aa(lp3484
S'10.7727203369'
p3485
ag6
(g8
S'\xb3(\x83\xf9\xc2\x1d3@'
tRp3486
ag6
(g8
S'\xc4\xd2V*O:R@'
tRp3487
ag11
aa(lp3488
S'10.0855023933'
p3489
ag6
(g8
S'\xc0\x15\xb8\xe2\xc4\x1d3@'
tRp3490
ag6
(g8
S':\x17\xb4|.:R@'
tRp3491
ag11
aa(lp3492
S'10.038605636'
p3493
ag6
(g8
S'\xc0\x15\xb8\xe2\xc4\x1d3@'
tRp3494
ag6
(g8
S'7\x0e\x15e/:R@'
tRp3495
ag11
aa(lp3496
S'10.2541781339'
p3497
ag6
(g8
S'\xc0\x15\xb8\xe2\xc4\x1d3@'
tRp3498
ag6
(g8
S'3\x05vM0:R@'
tRp3499
ag11
aa(lp3500
S'8.59309387207'
p3501
ag6
(g8
S'\xc0\x15\xb8\xe2\xc4\x1d3@'
tRp3502
ag6
(g8
S'\xeb>\xcbED:R@'
tRp3503
ag11
aa(lp3504
S'9.89774011867'
p3505
ag6
(g8
S'\xc0\x15\xb8\xe2\xc4\x1d3@'
tRp3506
ag6
(g8
S'\xad\x93\xfd\x84U:R@'
tRp3507
ag11
aa(lp3508
S'10.1953015634'
p3509
ag6
(g8
S'\xce\x02\xed\xcb\xc6\x1d3@'
tRp3510
ag6
(g8
S'7\x0e\x15e/:R@'
tRp3511
ag11
aa(lp3512
S'10.0897379878'
p3513
ag6
(g8
S'\xce\x02\xed\xcb\xc6\x1d3@'
tRp3514
ag6
(g8
S'3\x05vM0:R@'
tRp3515
ag11
aa(lp3516
S'10.0611446215'
p3517
ag6
(g8
S'\xce\x02\xed\xcb\xc6\x1d3@'
tRp3518
ag6
(g8
S'0\xfc\xd651:R@'
tRp3519
ag11
aa(lp3520
S'10.2125396729'
p3521
ag6
(g8
S'\xce\x02\xed\xcb\xc6\x1d3@'
tRp3522
ag6
(g8
S'\xeb>\xcbED:R@'
tRp3523
ag11
aa(lp3524
S'10.5156402588'
p3525
ag6
(g8
S'\xce\x02\xed\xcb\xc6\x1d3@'
tRp3526
ag6
(g8
S'\xce\xed3qL:R@'
tRp3527
ag11
aa(lp3528
S'8.61408081055'
p3529
ag6
(g8
S'\xce\x02\xed\xcb\xc6\x1d3@'
tRp3530
ag6
(g8
S'\xc7\xdb\xf5AN:R@'
tRp3531
ag11
aa(lp3532
S'10.6883163452'
p3533
ag6
(g8
S'\xce\x02\xed\xcb\xc6\x1d3@'
tRp3534
ag6
(g8
S'\xb1\x9c\x9c\x9cT:R@'
tRp3535
ag11
aa(lp3536
S'10.0090404857'
p3537
ag6
(g8
S'\xce\x02\xed\xcb\xc6\x1d3@'
tRp3538
ag6
(g8
S'\xad\x93\xfd\x84U:R@'
tRp3539
ag11
aa(lp3540
S'9.68229082719'
p3541
ag6
(g8
S'\xdb\xef!\xb5\xc8\x1d3@'
tRp3542
ag6
(g8
S'3\x05vM0:R@'
tRp3543
ag11
aa(lp3544
S'10.0999097488'
p3545
ag6
(g8
S'\xdb\xef!\xb5\xc8\x1d3@'
tRp3546
ag6
(g8
S'0\xfc\xd651:R@'
tRp3547
ag11
aa(lp3548
S'9.5765838623'
p3549
ag6
(g8
S'\xdb\xef!\xb5\xc8\x1d3@'
tRp3550
ag6
(g8
S'-\xf37\x1e2:R@'
tRp3551
ag11
aa(lp3552
S'7.85557556152'
p3553
ag6
(g8
S'\xdb\xef!\xb5\xc8\x1d3@'
tRp3554
ag6
(g8
S'\xe85,.E:R@'
tRp3555
ag11
aa(lp3556
S'9.03623962402'
p3557
ag6
(g8
S'\xdb\xef!\xb5\xc8\x1d3@'
tRp3558
ag6
(g8
S'\xce\xed3qL:R@'
tRp3559
ag11
aa(lp3560
S'9.86117045085'
p3561
ag6
(g8
S'\xdb\xef!\xb5\xc8\x1d3@'
tRp3562
ag6
(g8
S'\xc7\xdb\xf5AN:R@'
tRp3563
ag11
aa(lp3564
S'9.98835235596'
p3565
ag6
(g8
S'\xdb\xef!\xb5\xc8\x1d3@'
tRp3566
ag6
(g8
S'\xb1\x9c\x9c\x9cT:R@'
tRp3567
ag11
aa(lp3568
S'10.0785156886'
p3569
ag6
(g8
S'\xe8\xdcV\x9e\xca\x1d3@'
tRp3570
ag6
(g8
S'0\xfc\xd651:R@'
tRp3571
ag11
aa(lp3572
S'10.1570711489'
p3573
ag6
(g8
S'\xe8\xdcV\x9e\xca\x1d3@'
tRp3574
ag6
(g8
S'-\xf37\x1e2:R@'
tRp3575
ag11
aa(lp3576
S'9.94435119629'
p3577
ag6
(g8
S'\xe8\xdcV\x9e\xca\x1d3@'
tRp3578
ag6
(g8
S'*\xea\x98\x063:R@'
tRp3579
ag11
aa(lp3580
S'11.10597229'
p3581
ag6
(g8
S'\xe8\xdcV\x9e\xca\x1d3@'
tRp3582
ag6
(g8
S'\xcb\xe4\x94YM:R@'
tRp3583
ag11
aa(lp3584
S'9.53288705008'
p3585
ag6
(g8
S'\xe8\xdcV\x9e\xca\x1d3@'
tRp3586
ag6
(g8
S'\xc7\xdb\xf5AN:R@'
tRp3587
ag11
aa(lp3588
S'10.1804755075'
p3589
ag6
(g8
S'\xe8\xdcV\x9e\xca\x1d3@'
tRp3590
ag6
(g8
S'\xb4\xa5;\xb4S:R@'
tRp3591
ag11
aa(lp3592
S'10.330368042'
p3593
ag6
(g8
S'\xe8\xdcV\x9e\xca\x1d3@'
tRp3594
ag6
(g8
S'\xb1\x9c\x9c\x9cT:R@'
tRp3595
ag11
aa(lp3596
S'10.1005630493'
p3597
ag6
(g8
S'\xf6\xc9\x8b\x87\xcc\x1d3@'
tRp3598
ag6
(g8
S'-\xf37\x1e2:R@'
tRp3599
ag11
aa(lp3600
S'9.96557617188'
p3601
ag6
(g8
S'\xf6\xc9\x8b\x87\xcc\x1d3@'
tRp3602
ag6
(g8
S'*\xea\x98\x063:R@'
tRp3603
ag11
aa(lp3604
S'9.91221618652'
p3605
ag6
(g8
S'\xf6\xc9\x8b\x87\xcc\x1d3@'
tRp3606
ag6
(g8
S'&\xe1\xf9\xee3:R@'
tRp3607
ag11
aa(lp3608
S'10.5290298462'
p3609
ag6
(g8
S'\xf6\xc9\x8b\x87\xcc\x1d3@'
tRp3610
ag6
(g8
S'\xe85,.E:R@'
tRp3611
ag11
aa(lp3612
S'9.96815490723'
p3613
ag6
(g8
S'\xf6\xc9\x8b\x87\xcc\x1d3@'
tRp3614
ag6
(g8
S'\xce\xed3qL:R@'
tRp3615
ag11
aa(lp3616
S'10.7698638916'
p3617
ag6
(g8
S'\xf6\xc9\x8b\x87\xcc\x1d3@'
tRp3618
ag6
(g8
S'\xc7\xdb\xf5AN:R@'
tRp3619
ag11
aa(lp3620
S'10.1192801339'
p3621
ag6
(g8
S'\xf6\xc9\x8b\x87\xcc\x1d3@'
tRp3622
ag6
(g8
S'\xb4\xa5;\xb4S:R@'
tRp3623
ag11
aa(lp3624
S'10.1543197632'
p3625
ag6
(g8
S'\x03\xb7\xc0p\xce\x1d3@'
tRp3626
ag6
(g8
S'-\xf37\x1e2:R@'
tRp3627
ag11
aa(lp3628
S'10.1793065752'
p3629
ag6
(g8
S'\x03\xb7\xc0p\xce\x1d3@'
tRp3630
ag6
(g8
S'*\xea\x98\x063:R@'
tRp3631
ag11
aa(lp3632
S'9.92162947221'
p3633
ag6
(g8
S'\x03\xb7\xc0p\xce\x1d3@'
tRp3634
ag6
(g8
S'&\xe1\xf9\xee3:R@'
tRp3635
ag11
aa(lp3636
S'10.4769592285'
p3637
ag6
(g8
S'\x03\xb7\xc0p\xce\x1d3@'
tRp3638
ag6
(g8
S'#\xd8Z\xd74:R@'
tRp3639
ag11
aa(lp3640
S'8.99815368652'
p3641
ag6
(g8
S'\x03\xb7\xc0p\xce\x1d3@'
tRp3642
ag6
(g8
S'\xe5,\x8d\x16F:R@'
tRp3643
ag11
aa(lp3644
S'10.3410797119'
p3645
ag6
(g8
S'\x03\xb7\xc0p\xce\x1d3@'
tRp3646
ag6
(g8
S'\xce\xed3qL:R@'
tRp3647
ag11
aa(lp3648
S'8.8642578125'
p3649
ag6
(g8
S'\x03\xb7\xc0p\xce\x1d3@'
tRp3650
ag6
(g8
S'\xcb\xe4\x94YM:R@'
tRp3651
ag11
aa(lp3652
S'9.99505310059'
p3653
ag6
(g8
S'\x03\xb7\xc0p\xce\x1d3@'
tRp3654
ag6
(g8
S'\xc7\xdb\xf5AN:R@'
tRp3655
ag11
aa(lp3656
S'10.1104361794'
p3657
ag6
(g8
S'\x03\xb7\xc0p\xce\x1d3@'
tRp3658
ag6
(g8
S'\xb7\xae\xda\xcbR:R@'
tRp3659
ag11
aa(lp3660
S'10.2125'
p3661
ag6
(g8
S'\x03\xb7\xc0p\xce\x1d3@'
tRp3662
ag6
(g8
S'\xb4\xa5;\xb4S:R@'
tRp3663
ag11
aa(lp3664
S'10.1451424991'
p3665
ag6
(g8
S'\x10\xa4\xf5Y\xd0\x1d3@'
tRp3666
ag6
(g8
S'*\xea\x98\x063:R@'
tRp3667
ag11
aa(lp3668
S'9.94749328613'
p3669
ag6
(g8
S'\x10\xa4\xf5Y\xd0\x1d3@'
tRp3670
ag6
(g8
S'&\xe1\xf9\xee3:R@'
tRp3671
ag11
aa(lp3672
S'10.2326507568'
p3673
ag6
(g8
S'\x10\xa4\xf5Y\xd0\x1d3@'
tRp3674
ag6
(g8
S'#\xd8Z\xd74:R@'
tRp3675
ag11
aa(lp3676
S'10.7334442139'
p3677
ag6
(g8
S'\x10\xa4\xf5Y\xd0\x1d3@'
tRp3678
ag6
(g8
S' \xcf\xbb\xbf5:R@'
tRp3679
ag11
aa(lp3680
S'7.63896179199'
p3681
ag6
(g8
S'\x10\xa4\xf5Y\xd0\x1d3@'
tRp3682
ag6
(g8
S'\xe5,\x8d\x16F:R@'
tRp3683
ag11
aa(lp3684
S'7.87937927246'
p3685
ag6
(g8
S'\x10\xa4\xf5Y\xd0\x1d3@'
tRp3686
ag6
(g8
S'\xce\xed3qL:R@'
tRp3687
ag11
aa(lp3688
S'9.33582632882'
p3689
ag6
(g8
S'\x10\xa4\xf5Y\xd0\x1d3@'
tRp3690
ag6
(g8
S'\xcb\xe4\x94YM:R@'
tRp3691
ag11
aa(lp3692
S'9.63053894043'
p3693
ag6
(g8
S'\x10\xa4\xf5Y\xd0\x1d3@'
tRp3694
ag6
(g8
S'\xc7\xdb\xf5AN:R@'
tRp3695
ag11
aa(lp3696
S'9.68580414528'
p3697
ag6
(g8
S'\x10\xa4\xf5Y\xd0\x1d3@'
tRp3698
ag6
(g8
S'\xb7\xae\xda\xcbR:R@'
tRp3699
ag11
aa(lp3700
S'10.434293664'
p3701
ag6
(g8
S'\x1e\x91*C\xd2\x1d3@'
tRp3702
ag6
(g8
S'&\xe1\xf9\xee3:R@'
tRp3703
ag11
aa(lp3704
S'9.78836250305'
p3705
ag6
(g8
S'\x1e\x91*C\xd2\x1d3@'
tRp3706
ag6
(g8
S'#\xd8Z\xd74:R@'
tRp3707
ag11
aa(lp3708
S'10.1069390433'
p3709
ag6
(g8
S'\x1e\x91*C\xd2\x1d3@'
tRp3710
ag6
(g8
S' \xcf\xbb\xbf5:R@'
tRp3711
ag11
aa(lp3712
S'9.29570007324'
p3713
ag6
(g8
S'\x1e\x91*C\xd2\x1d3@'
tRp3714
ag6
(g8
S'\x1c\xc6\x1c\xa86:R@'
tRp3715
ag11
aa(lp3716
S'10.2765452067'
p3717
ag6
(g8
S'\x1e\x91*C\xd2\x1d3@'
tRp3718
ag6
(g8
S'\xcb\xe4\x94YM:R@'
tRp3719
ag11
aa(lp3720
S'9.24836730957'
p3721
ag6
(g8
S'\x1e\x91*C\xd2\x1d3@'
tRp3722
ag6
(g8
S'\xba\xb7y\xe3Q:R@'
tRp3723
ag11
aa(lp3724
S'8.57504272461'
p3725
ag6
(g8
S'+~_,\xd4\x1d3@'
tRp3726
ag6
(g8
S'&\xe1\xf9\xee3:R@'
tRp3727
ag11
aa(lp3728
S'10.2513490565'
p3729
ag6
(g8
S'+~_,\xd4\x1d3@'
tRp3730
ag6
(g8
S'#\xd8Z\xd74:R@'
tRp3731
ag11
aa(lp3732
S'9.59868730818'
p3733
ag6
(g8
S'+~_,\xd4\x1d3@'
tRp3734
ag6
(g8
S' \xcf\xbb\xbf5:R@'
tRp3735
ag11
aa(lp3736
S'10.2795731117'
p3737
ag6
(g8
S'+~_,\xd4\x1d3@'
tRp3738
ag6
(g8
S'\x1c\xc6\x1c\xa86:R@'
tRp3739
ag11
aa(lp3740
S'9.81462097168'
p3741
ag6
(g8
S'+~_,\xd4\x1d3@'
tRp3742
ag6
(g8
S'\x19\xbd}\x907:R@'
tRp3743
ag11
aa(lp3744
S'8.67085266113'
p3745
ag6
(g8
S'+~_,\xd4\x1d3@'
tRp3746
ag6
(g8
S'\xe5,\x8d\x16F:R@'
tRp3747
ag11
aa(lp3748
S'9.46351623535'
p3749
ag6
(g8
S'+~_,\xd4\x1d3@'
tRp3750
ag6
(g8
S'\xe2#\xee\xfeF:R@'
tRp3751
ag11
aa(lp3752
S'9.16903032575'
p3753
ag6
(g8
S'+~_,\xd4\x1d3@'
tRp3754
ag6
(g8
S'\xce\xed3qL:R@'
tRp3755
ag11
aa(lp3756
S'10.2342803955'
p3757
ag6
(g8
S'+~_,\xd4\x1d3@'
tRp3758
ag6
(g8
S'\xcb\xe4\x94YM:R@'
tRp3759
ag11
aa(lp3760
S'9.12840643162'
p3761
ag6
(g8
S'+~_,\xd4\x1d3@'
tRp3762
ag6
(g8
S'\xba\xb7y\xe3Q:R@'
tRp3763
ag11
aa(lp3764
S'10.4729766846'
p3765
ag6
(g8
S'8k\x94\x15\xd6\x1d3@'
tRp3766
ag6
(g8
S'#\xd8Z\xd74:R@'
tRp3767
ag11
aa(lp3768
S'9.88700589267'
p3769
ag6
(g8
S'8k\x94\x15\xd6\x1d3@'
tRp3770
ag6
(g8
S'\x1c\xc6\x1c\xa86:R@'
tRp3771
ag11
aa(lp3772
S'9.87127380371'
p3773
ag6
(g8
S'8k\x94\x15\xd6\x1d3@'
tRp3774
ag6
(g8
S'\x19\xbd}\x907:R@'
tRp3775
ag11
aa(lp3776
S'9.91499328613'
p3777
ag6
(g8
S'8k\x94\x15\xd6\x1d3@'
tRp3778
ag6
(g8
S'\x16\xb4\xdex8:R@'
tRp3779
ag11
aa(lp3780
S'9.11020115444'
p3781
ag6
(g8
S'8k\x94\x15\xd6\x1d3@'
tRp3782
ag6
(g8
S'\xce\xed3qL:R@'
tRp3783
ag11
aa(lp3784
S'9.98100891113'
p3785
ag6
(g8
S'8k\x94\x15\xd6\x1d3@'
tRp3786
ag6
(g8
S'\xcb\xe4\x94YM:R@'
tRp3787
ag11
aa(lp3788
S'9.94792175293'
p3789
ag6
(g8
S'8k\x94\x15\xd6\x1d3@'
tRp3790
ag6
(g8
S'\xbe\xc0\x18\xfbP:R@'
tRp3791
ag11
aa(lp3792
S'9.96999428489'
p3793
ag6
(g8
S'FX\xc9\xfe\xd7\x1d3@'
tRp3794
ag6
(g8
S'&\xe1\xf9\xee3:R@'
tRp3795
ag11
aa(lp3796
S'9.91499328613'
p3797
ag6
(g8
S'FX\xc9\xfe\xd7\x1d3@'
tRp3798
ag6
(g8
S'#\xd8Z\xd74:R@'
tRp3799
ag11
aa(lp3800
S'10.0183807373'
p3801
ag6
(g8
S'FX\xc9\xfe\xd7\x1d3@'
tRp3802
ag6
(g8
S'\x19\xbd}\x907:R@'
tRp3803
ag11
aa(lp3804
S'9.97635868617'
p3805
ag6
(g8
S'FX\xc9\xfe\xd7\x1d3@'
tRp3806
ag6
(g8
S'\x16\xb4\xdex8:R@'
tRp3807
ag11
aa(lp3808
S'10.0595347087'
p3809
ag6
(g8
S'FX\xc9\xfe\xd7\x1d3@'
tRp3810
ag6
(g8
S'\x13\xab?a9:R@'
tRp3811
ag11
aa(lp3812
S'8.78630065918'
p3813
ag6
(g8
S'FX\xc9\xfe\xd7\x1d3@'
tRp3814
ag6
(g8
S'\xe2#\xee\xfeF:R@'
tRp3815
ag11
aa(lp3816
S'9.92156764439'
p3817
ag6
(g8
S'FX\xc9\xfe\xd7\x1d3@'
tRp3818
ag6
(g8
S'\xce\xed3qL:R@'
tRp3819
ag11
aa(lp3820
S'10.4318511963'
p3821
ag6
(g8
S'FX\xc9\xfe\xd7\x1d3@'
tRp3822
ag6
(g8
S'\xcb\xe4\x94YM:R@'
tRp3823
ag11
aa(lp3824
S'10.2645111084'
p3825
ag6
(g8
S'FX\xc9\xfe\xd7\x1d3@'
tRp3826
ag6
(g8
S'\xc1\xc9\xb7\x12P:R@'
tRp3827
ag11
aa(lp3828
S'9.86378224691'
p3829
ag6
(g8
S'FX\xc9\xfe\xd7\x1d3@'
tRp3830
ag6
(g8
S'\xbe\xc0\x18\xfbP:R@'
tRp3831
ag11
aa(lp3832
S'9.74305323551'
p3833
ag6
(g8
S'SE\xfe\xe7\xd9\x1d3@'
tRp3834
ag6
(g8
S'&\xe1\xf9\xee3:R@'
tRp3835
ag11
aa(lp3836
S'9.95589599609'
p3837
ag6
(g8
S'SE\xfe\xe7\xd9\x1d3@'
tRp3838
ag6
(g8
S'\x16\xb4\xdex8:R@'
tRp3839
ag11
aa(lp3840
S'9.7138671875'
p3841
ag6
(g8
S'SE\xfe\xe7\xd9\x1d3@'
tRp3842
ag6
(g8
S'\x13\xab?a9:R@'
tRp3843
ag11
aa(lp3844
S'9.78248596191'
p3845
ag6
(g8
S'SE\xfe\xe7\xd9\x1d3@'
tRp3846
ag6
(g8
S'\x0f\xa2\xa0I::R@'
tRp3847
ag11
aa(lp3848
S'10.0246887207'
p3849
ag6
(g8
S'SE\xfe\xe7\xd9\x1d3@'
tRp3850
ag6
(g8
S'\xde\x1aO\xe7G:R@'
tRp3851
ag11
aa(lp3852
S'10.4831085205'
p3853
ag6
(g8
S'SE\xfe\xe7\xd9\x1d3@'
tRp3854
ag6
(g8
S'\xce\xed3qL:R@'
tRp3855
ag11
aa(lp3856
S'10.2590362549'
p3857
ag6
(g8
S'SE\xfe\xe7\xd9\x1d3@'
tRp3858
ag6
(g8
S'\xcb\xe4\x94YM:R@'
tRp3859
ag11
aa(lp3860
S'10.2193073946'
p3861
ag6
(g8
S'SE\xfe\xe7\xd9\x1d3@'
tRp3862
ag6
(g8
S'\xc1\xc9\xb7\x12P:R@'
tRp3863
ag11
aa(lp3864
S'9.49055044992'
p3865
ag6
(g8
S'`23\xd1\xdb\x1d3@'
tRp3866
ag6
(g8
S'&\xe1\xf9\xee3:R@'
tRp3867
ag11
aa(lp3868
S'10.203577215'
p3869
ag6
(g8
S'`23\xd1\xdb\x1d3@'
tRp3870
ag6
(g8
S'#\xd8Z\xd74:R@'
tRp3871
ag11
aa(lp3872
S'9.93721008301'
p3873
ag6
(g8
S'`23\xd1\xdb\x1d3@'
tRp3874
ag6
(g8
S'\x13\xab?a9:R@'
tRp3875
ag11
aa(lp3876
S'10.342444458'
p3877
ag6
(g8
S'`23\xd1\xdb\x1d3@'
tRp3878
ag6
(g8
S'\x0f\xa2\xa0I::R@'
tRp3879
ag11
aa(lp3880
S'10.3871917725'
p3881
ag6
(g8
S'`23\xd1\xdb\x1d3@'
tRp3882
ag6
(g8
S'\x0c\x99\x012;:R@'
tRp3883
ag11
aa(lp3884
S'10.7370147705'
p3885
ag6
(g8
S'`23\xd1\xdb\x1d3@'
tRp3886
ag6
(g8
S'\t\x90b\x1a<:R@'
tRp3887
ag11
aa(lp3888
S'9.10140228271'
p3889
ag6
(g8
S'`23\xd1\xdb\x1d3@'
tRp3890
ag6
(g8
S'\xde\x1aO\xe7G:R@'
tRp3891
ag11
aa(lp3892
S'8.7678527832'
p3893
ag6
(g8
S'`23\xd1\xdb\x1d3@'
tRp3894
ag6
(g8
S'\xce\xed3qL:R@'
tRp3895
ag11
aa(lp3896
S'10.0004272461'
p3897
ag6
(g8
S'`23\xd1\xdb\x1d3@'
tRp3898
ag6
(g8
S'\xcb\xe4\x94YM:R@'
tRp3899
ag11
aa(lp3900
S'9.98248121474'
p3901
ag6
(g8
S'`23\xd1\xdb\x1d3@'
tRp3902
ag6
(g8
S'\xc4\xd2V*O:R@'
tRp3903
ag11
aa(lp3904
S'10.0272674561'
p3905
ag6
(g8
S'`23\xd1\xdb\x1d3@'
tRp3906
ag6
(g8
S'\xc1\xc9\xb7\x12P:R@'
tRp3907
ag11
aa(lp3908
S'10.5150909424'
p3909
ag6
(g8
S'n\x1fh\xba\xdd\x1d3@'
tRp3910
ag6
(g8
S'#\xd8Z\xd74:R@'
tRp3911
ag11
aa(lp3912
S'9.97142791748'
p3913
ag6
(g8
S'n\x1fh\xba\xdd\x1d3@'
tRp3914
ag6
(g8
S'\x0f\xa2\xa0I::R@'
tRp3915
ag11
aa(lp3916
S'9.65373893406'
p3917
ag6
(g8
S'n\x1fh\xba\xdd\x1d3@'
tRp3918
ag6
(g8
S'\x0c\x99\x012;:R@'
tRp3919
ag11
aa(lp3920
S'9.94911193848'
p3921
ag6
(g8
S'n\x1fh\xba\xdd\x1d3@'
tRp3922
ag6
(g8
S'\t\x90b\x1a<:R@'
tRp3923
ag11
aa(lp3924
S'9.41233825684'
p3925
ag6
(g8
S'n\x1fh\xba\xdd\x1d3@'
tRp3926
ag6
(g8
S'\x06\x87\xc3\x02=:R@'
tRp3927
ag11
aa(lp3928
S'10.8790435791'
p3929
ag6
(g8
S'n\x1fh\xba\xdd\x1d3@'
tRp3930
ag6
(g8
S'\xde\x1aO\xe7G:R@'
tRp3931
ag11
aa(lp3932
S'8.52684020996'
p3933
ag6
(g8
S'n\x1fh\xba\xdd\x1d3@'
tRp3934
ag6
(g8
S'\xd1\xf6\xd2\x88K:R@'
tRp3935
ag11
aa(lp3936
S'10.0413513184'
p3937
ag6
(g8
S'n\x1fh\xba\xdd\x1d3@'
tRp3938
ag6
(g8
S'\xce\xed3qL:R@'
tRp3939
ag11
aa(lp3940
S'9.90992237438'
p3941
ag6
(g8
S'n\x1fh\xba\xdd\x1d3@'
tRp3942
ag6
(g8
S'\xc4\xd2V*O:R@'
tRp3943
ag11
aa(lp3944
S'10.0486297607'
p3945
ag6
(g8
S'{\x0c\x9d\xa3\xdf\x1d3@'
tRp3946
ag6
(g8
S'#\xd8Z\xd74:R@'
tRp3947
ag11
aa(lp3948
S'10.7717001779'
p3949
ag6
(g8
S'{\x0c\x9d\xa3\xdf\x1d3@'
tRp3950
ag6
(g8
S'\x0c\x99\x012;:R@'
tRp3951
ag11
aa(lp3952
S'10.0681304932'
p3953
ag6
(g8
S'{\x0c\x9d\xa3\xdf\x1d3@'
tRp3954
ag6
(g8
S'\t\x90b\x1a<:R@'
tRp3955
ag11
aa(lp3956
S'10.2134521484'
p3957
ag6
(g8
S'{\x0c\x9d\xa3\xdf\x1d3@'
tRp3958
ag6
(g8
S'\x06\x87\xc3\x02=:R@'
tRp3959
ag11
aa(lp3960
S'10.3208465576'
p3961
ag6
(g8
S'{\x0c\x9d\xa3\xdf\x1d3@'
tRp3962
ag6
(g8
S'\x02~$\xeb=:R@'
tRp3963
ag11
aa(lp3964
S'9.1957244873'
p3965
ag6
(g8
S'{\x0c\x9d\xa3\xdf\x1d3@'
tRp3966
ag6
(g8
S'\xde\x1aO\xe7G:R@'
tRp3967
ag11
aa(lp3968
S'8.70358276367'
p3969
ag6
(g8
S'{\x0c\x9d\xa3\xdf\x1d3@'
tRp3970
ag6
(g8
S'\xdb\x11\xb0\xcfH:R@'
tRp3971
ag11
aa(lp3972
S'9.55240030492'
p3973
ag6
(g8
S'{\x0c\x9d\xa3\xdf\x1d3@'
tRp3974
ag6
(g8
S'\xce\xed3qL:R@'
tRp3975
ag11
aa(lp3976
S'9.33712278094'
p3977
ag6
(g8
S'{\x0c\x9d\xa3\xdf\x1d3@'
tRp3978
ag6
(g8
S'\xc7\xdb\xf5AN:R@'
tRp3979
ag11
aa(lp3980
S'8.85176086426'
p3981
ag6
(g8
S'{\x0c\x9d\xa3\xdf\x1d3@'
tRp3982
ag6
(g8
S'\xc4\xd2V*O:R@'
tRp3983
ag11
aa(lp3984
S'10.327210083'
p3985
ag6
(g8
S'\x88\xf9\xd1\x8c\xe1\x1d3@'
tRp3986
ag6
(g8
S'#\xd8Z\xd74:R@'
tRp3987
ag11
aa(lp3988
S'10.1573944092'
p3989
ag6
(g8
S'\x88\xf9\xd1\x8c\xe1\x1d3@'
tRp3990
ag6
(g8
S' \xcf\xbb\xbf5:R@'
tRp3991
ag11
aa(lp3992
S'11.0202789307'
p3993
ag6
(g8
S'\x88\xf9\xd1\x8c\xe1\x1d3@'
tRp3994
ag6
(g8
S'\x1c\xc6\x1c\xa86:R@'
tRp3995
ag11
aa(lp3996
S'9.29617614746'
p3997
ag6
(g8
S'\x88\xf9\xd1\x8c\xe1\x1d3@'
tRp3998
ag6
(g8
S'\t\x90b\x1a<:R@'
tRp3999
ag11
aa(lp4000
S'10.1705322266'
p4001
ag6
(g8
S'\x88\xf9\xd1\x8c\xe1\x1d3@'
tRp4002
ag6
(g8
S'\x06\x87\xc3\x02=:R@'
tRp4003
ag11
aa(lp4004
S'10.1361410958'
p4005
ag6
(g8
S'\x88\xf9\xd1\x8c\xe1\x1d3@'
tRp4006
ag6
(g8
S'\x02~$\xeb=:R@'
tRp4007
ag11
aa(lp4008
S'10.3117784773'
p4009
ag6
(g8
S'\x88\xf9\xd1\x8c\xe1\x1d3@'
tRp4010
ag6
(g8
S'\xfft\x85\xd3>:R@'
tRp4011
ag11
aa(lp4012
S'9.12992422921'
p4013
ag6
(g8
S'\x88\xf9\xd1\x8c\xe1\x1d3@'
tRp4014
ag6
(g8
S'\xd1\xf6\xd2\x88K:R@'
tRp4015
ag11
aa(lp4016
S'9.44497148381'
p4017
ag6
(g8
S'\x88\xf9\xd1\x8c\xe1\x1d3@'
tRp4018
ag6
(g8
S'\xce\xed3qL:R@'
tRp4019
ag11
aa(lp4020
S'10.3904476166'
p4021
ag6
(g8
S'\x88\xf9\xd1\x8c\xe1\x1d3@'
tRp4022
ag6
(g8
S'\xcb\xe4\x94YM:R@'
tRp4023
ag11
aa(lp4024
S'10.3129631781'
p4025
ag6
(g8
S'\x88\xf9\xd1\x8c\xe1\x1d3@'
tRp4026
ag6
(g8
S'\xc7\xdb\xf5AN:R@'
tRp4027
ag11
aa(lp4028
S'11.0682146796'
p4029
ag6
(g8
S'\x96\xe6\x06v\xe3\x1d3@'
tRp4030
ag6
(g8
S'\x1c\xc6\x1c\xa86:R@'
tRp4031
ag11
aa(lp4032
S'10.7696258545'
p4033
ag6
(g8
S'\x96\xe6\x06v\xe3\x1d3@'
tRp4034
ag6
(g8
S'\x06\x87\xc3\x02=:R@'
tRp4035
ag11
aa(lp4036
S'10.0177307129'
p4037
ag6
(g8
S'\x96\xe6\x06v\xe3\x1d3@'
tRp4038
ag6
(g8
S'\x02~$\xeb=:R@'
tRp4039
ag11
aa(lp4040
S'10.7883627755'
p4041
ag6
(g8
S'\x96\xe6\x06v\xe3\x1d3@'
tRp4042
ag6
(g8
S'\xfft\x85\xd3>:R@'
tRp4043
ag11
aa(lp4044
S'10.3917419434'
p4045
ag6
(g8
S'\x96\xe6\x06v\xe3\x1d3@'
tRp4046
ag6
(g8
S'\xfck\xe6\xbb?:R@'
tRp4047
ag11
aa(lp4048
S'8.67323303223'
p4049
ag6
(g8
S'\x96\xe6\x06v\xe3\x1d3@'
tRp4050
ag6
(g8
S'\xdb\x11\xb0\xcfH:R@'
tRp4051
ag11
aa(lp4052
S'8.64080047607'
p4053
ag6
(g8
S'\x96\xe6\x06v\xe3\x1d3@'
tRp4054
ag6
(g8
S'\xd1\xf6\xd2\x88K:R@'
tRp4055
ag11
aa(lp4056
S'9.75365702311'
p4057
ag6
(g8
S'\x96\xe6\x06v\xe3\x1d3@'
tRp4058
ag6
(g8
S'\xce\xed3qL:R@'
tRp4059
ag11
aa(lp4060
S'10.1555151688'
p4061
ag6
(g8
S'\x96\xe6\x06v\xe3\x1d3@'
tRp4062
ag6
(g8
S'\xcb\xe4\x94YM:R@'
tRp4063
ag11
aa(lp4064
S'10.8331222534'
p4065
ag6
(g8
S'\xa3\xd3;_\xe5\x1d3@'
tRp4066
ag6
(g8
S'\x1c\xc6\x1c\xa86:R@'
tRp4067
ag11
aa(lp4068
S'8.65519714355'
p4069
ag6
(g8
S'\xa3\xd3;_\xe5\x1d3@'
tRp4070
ag6
(g8
S'\x19\xbd}\x907:R@'
tRp4071
ag11
aa(lp4072
S'9.48470153809'
p4073
ag6
(g8
S'\xa3\xd3;_\xe5\x1d3@'
tRp4074
ag6
(g8
S'\x02~$\xeb=:R@'
tRp4075
ag11
aa(lp4076
S'9.96998977661'
p4077
ag6
(g8
S'\xa3\xd3;_\xe5\x1d3@'
tRp4078
ag6
(g8
S'\xfft\x85\xd3>:R@'
tRp4079
ag11
aa(lp4080
S'9.30284118652'
p4081
ag6
(g8
S'\xa3\xd3;_\xe5\x1d3@'
tRp4082
ag6
(g8
S'\xfck\xe6\xbb?:R@'
tRp4083
ag11
aa(lp4084
S'9.93710188432'
p4085
ag6
(g8
S'\xa3\xd3;_\xe5\x1d3@'
tRp4086
ag6
(g8
S'\xf8bG\xa4@:R@'
tRp4087
ag11
aa(lp4088
S'10.4275665283'
p4089
ag6
(g8
S'\xa3\xd3;_\xe5\x1d3@'
tRp4090
ag6
(g8
S'\xf5Y\xa8\x8cA:R@'
tRp4091
ag11
aa(lp4092
S'10.845916748'
p4093
ag6
(g8
S'\xa3\xd3;_\xe5\x1d3@'
tRp4094
ag6
(g8
S'\xd8\x08\x11\xb8I:R@'
tRp4095
ag11
aa(lp4096
S'9.9268951416'
p4097
ag6
(g8
S'\xa3\xd3;_\xe5\x1d3@'
tRp4098
ag6
(g8
S'\xd5\xffq\xa0J:R@'
tRp4099
ag11
aa(lp4100
S'9.58721438321'
p4101
ag6
(g8
S'\xa3\xd3;_\xe5\x1d3@'
tRp4102
ag6
(g8
S'\xd1\xf6\xd2\x88K:R@'
tRp4103
ag11
aa(lp4104
S'10.4431316822'
p4105
ag6
(g8
S'\xa3\xd3;_\xe5\x1d3@'
tRp4106
ag6
(g8
S'\xce\xed3qL:R@'
tRp4107
ag11
aa(lp4108
S'10.838973999'
p4109
ag6
(g8
S'\xa3\xd3;_\xe5\x1d3@'
tRp4110
ag6
(g8
S'\xcb\xe4\x94YM:R@'
tRp4111
ag11
aa(lp4112
S'5.69598388672'
p4113
ag6
(g8
S'\xb0\xc0pH\xe7\x1d3@'
tRp4114
ag6
(g8
S'\x19\xbd}\x907:R@'
tRp4115
ag11
aa(lp4116
S'10.975289917'
p4117
ag6
(g8
S'\xb0\xc0pH\xe7\x1d3@'
tRp4118
ag6
(g8
S'\xfft\x85\xd3>:R@'
tRp4119
ag11
aa(lp4120
S'10.2799359131'
p4121
ag6
(g8
S'\xb0\xc0pH\xe7\x1d3@'
tRp4122
ag6
(g8
S'\xfck\xe6\xbb?:R@'
tRp4123
ag11
aa(lp4124
S'9.98442077637'
p4125
ag6
(g8
S'\xb0\xc0pH\xe7\x1d3@'
tRp4126
ag6
(g8
S'\xf8bG\xa4@:R@'
tRp4127
ag11
aa(lp4128
S'10.4635966908'
p4129
ag6
(g8
S'\xb0\xc0pH\xe7\x1d3@'
tRp4130
ag6
(g8
S'\xf5Y\xa8\x8cA:R@'
tRp4131
ag11
aa(lp4132
S'11.0897064209'
p4133
ag6
(g8
S'\xb0\xc0pH\xe7\x1d3@'
tRp4134
ag6
(g8
S'\xf2P\tuB:R@'
tRp4135
ag11
aa(lp4136
S'9.8836517334'
p4137
ag6
(g8
S'\xb0\xc0pH\xe7\x1d3@'
tRp4138
ag6
(g8
S'\xd8\x08\x11\xb8I:R@'
tRp4139
ag11
aa(lp4140
S'9.77953101849'
p4141
ag6
(g8
S'\xb0\xc0pH\xe7\x1d3@'
tRp4142
ag6
(g8
S'\xd5\xffq\xa0J:R@'
tRp4143
ag11
aa(lp4144
S'10.0156851279'
p4145
ag6
(g8
S'\xb0\xc0pH\xe7\x1d3@'
tRp4146
ag6
(g8
S'\xd1\xf6\xd2\x88K:R@'
tRp4147
ag11
aa(lp4148
S'10.3444824219'
p4149
ag6
(g8
S'\xb0\xc0pH\xe7\x1d3@'
tRp4150
ag6
(g8
S'\xce\xed3qL:R@'
tRp4151
ag11
aa(lp4152
S'9.31563568115'
p4153
ag6
(g8
S'\xb0\xc0pH\xe7\x1d3@'
tRp4154
ag6
(g8
S'\xcb\xe4\x94YM:R@'
tRp4155
ag11
aa(lp4156
S'9.86844380697'
p4157
ag6
(g8
S'\xbe\xad\xa51\xe9\x1d3@'
tRp4158
ag6
(g8
S'\x16\xb4\xdex8:R@'
tRp4159
ag11
aa(lp4160
S'10.8363952637'
p4161
ag6
(g8
S'\xbe\xad\xa51\xe9\x1d3@'
tRp4162
ag6
(g8
S'\xfck\xe6\xbb?:R@'
tRp4163
ag11
aa(lp4164
S'9.9450177002'
p4165
ag6
(g8
S'\xbe\xad\xa51\xe9\x1d3@'
tRp4166
ag6
(g8
S'\xf8bG\xa4@:R@'
tRp4167
ag11
aa(lp4168
S'8.84253692627'
p4169
ag6
(g8
S'\xbe\xad\xa51\xe9\x1d3@'
tRp4170
ag6
(g8
S'\xf5Y\xa8\x8cA:R@'
tRp4171
ag11
aa(lp4172
S'9.97261810303'
p4173
ag6
(g8
S'\xbe\xad\xa51\xe9\x1d3@'
tRp4174
ag6
(g8
S'\xf2P\tuB:R@'
tRp4175
ag11
aa(lp4176
S'10.2774047852'
p4177
ag6
(g8
S'\xbe\xad\xa51\xe9\x1d3@'
tRp4178
ag6
(g8
S'\xefGj]C:R@'
tRp4179
ag11
aa(lp4180
S'11.0497360229'
p4181
ag6
(g8
S'\xbe\xad\xa51\xe9\x1d3@'
tRp4182
ag6
(g8
S'\xd8\x08\x11\xb8I:R@'
tRp4183
ag11
aa(lp4184
S'9.99017333984'
p4185
ag6
(g8
S'\xbe\xad\xa51\xe9\x1d3@'
tRp4186
ag6
(g8
S'\xd5\xffq\xa0J:R@'
tRp4187
ag11
aa(lp4188
S'10.2264878122'
p4189
ag6
(g8
S'\xbe\xad\xa51\xe9\x1d3@'
tRp4190
ag6
(g8
S'\xd1\xf6\xd2\x88K:R@'
tRp4191
ag11
aa(lp4192
S'11.0210723877'
p4193
ag6
(g8
S'\xbe\xad\xa51\xe9\x1d3@'
tRp4194
ag6
(g8
S'\xcb\xe4\x94YM:R@'
tRp4195
ag11
aa(lp4196
S'9.83683776855'
p4197
ag6
(g8
S'\xcb\x9a\xda\x1a\xeb\x1d3@'
tRp4198
ag6
(g8
S'\x16\xb4\xdex8:R@'
tRp4199
ag11
aa(lp4200
S'9.96391487122'
p4201
ag6
(g8
S'\xcb\x9a\xda\x1a\xeb\x1d3@'
tRp4202
ag6
(g8
S'\x13\xab?a9:R@'
tRp4203
ag11
aa(lp4204
S'10.23802948'
p4205
ag6
(g8
S'\xcb\x9a\xda\x1a\xeb\x1d3@'
tRp4206
ag6
(g8
S'\xf8bG\xa4@:R@'
tRp4207
ag11
aa(lp4208
S'10.3210945129'
p4209
ag6
(g8
S'\xcb\x9a\xda\x1a\xeb\x1d3@'
tRp4210
ag6
(g8
S'\xf5Y\xa8\x8cA:R@'
tRp4211
ag11
aa(lp4212
S'10.3118804932'
p4213
ag6
(g8
S'\xcb\x9a\xda\x1a\xeb\x1d3@'
tRp4214
ag6
(g8
S'\xf2P\tuB:R@'
tRp4215
ag11
aa(lp4216
S'10.2815704346'
p4217
ag6
(g8
S'\xcb\x9a\xda\x1a\xeb\x1d3@'
tRp4218
ag6
(g8
S'\xefGj]C:R@'
tRp4219
ag11
aa(lp4220
S'10.1274909973'
p4221
ag6
(g8
S'\xcb\x9a\xda\x1a\xeb\x1d3@'
tRp4222
ag6
(g8
S'\xeb>\xcbED:R@'
tRp4223
ag11
aa(lp4224
S'9.80591498481'
p4225
ag6
(g8
S'\xcb\x9a\xda\x1a\xeb\x1d3@'
tRp4226
ag6
(g8
S'\xd8\x08\x11\xb8I:R@'
tRp4227
ag11
aa(lp4228
S'9.78138803881'
p4229
ag6
(g8
S'\xcb\x9a\xda\x1a\xeb\x1d3@'
tRp4230
ag6
(g8
S'\xd5\xffq\xa0J:R@'
tRp4231
ag11
aa(lp4232
S'8.41139221191'
p4233
ag6
(g8
S'\xcb\x9a\xda\x1a\xeb\x1d3@'
tRp4234
ag6
(g8
S'\xcb\xe4\x94YM:R@'
tRp4235
ag11
aa(lp4236
S'9.67064352597'
p4237
ag6
(g8
S'\xd8\x87\x0f\x04\xed\x1d3@'
tRp4238
ag6
(g8
S'\x13\xab?a9:R@'
tRp4239
ag11
aa(lp4240
S'9.73776383833'
p4241
ag6
(g8
S'\xd8\x87\x0f\x04\xed\x1d3@'
tRp4242
ag6
(g8
S'\x0f\xa2\xa0I::R@'
tRp4243
ag11
aa(lp4244
S'9.21417236328'
p4245
ag6
(g8
S'\xd8\x87\x0f\x04\xed\x1d3@'
tRp4246
ag6
(g8
S'\xf5Y\xa8\x8cA:R@'
tRp4247
ag11
aa(lp4248
S'9.80044223951'
p4249
ag6
(g8
S'\xd8\x87\x0f\x04\xed\x1d3@'
tRp4250
ag6
(g8
S'\xf2P\tuB:R@'
tRp4251
ag11
aa(lp4252
S'9.92451477051'
p4253
ag6
(g8
S'\xd8\x87\x0f\x04\xed\x1d3@'
tRp4254
ag6
(g8
S'\xeb>\xcbED:R@'
tRp4255
ag11
aa(lp4256
S'10.4219401966'
p4257
ag6
(g8
S'\xd8\x87\x0f\x04\xed\x1d3@'
tRp4258
ag6
(g8
S'\xe85,.E:R@'
tRp4259
ag11
aa(lp4260
S'9.84748331706'
p4261
ag6
(g8
S'\xd8\x87\x0f\x04\xed\x1d3@'
tRp4262
ag6
(g8
S'\xdb\x11\xb0\xcfH:R@'
tRp4263
ag11
aa(lp4264
S'10.0164913956'
p4265
ag6
(g8
S'\xd8\x87\x0f\x04\xed\x1d3@'
tRp4266
ag6
(g8
S'\xd8\x08\x11\xb8I:R@'
tRp4267
ag11
aa(lp4268
S'10.0922370324'
p4269
ag6
(g8
S'\xd8\x87\x0f\x04\xed\x1d3@'
tRp4270
ag6
(g8
S'\xd5\xffq\xa0J:R@'
tRp4271
ag11
aa(lp4272
S'10.8417510986'
p4273
ag6
(g8
S'\xd8\x87\x0f\x04\xed\x1d3@'
tRp4274
ag6
(g8
S'\xcb\xe4\x94YM:R@'
tRp4275
ag11
aa(lp4276
S'10.1718626022'
p4277
ag6
(g8
S'\xe6tD\xed\xee\x1d3@'
tRp4278
ag6
(g8
S'\x0f\xa2\xa0I::R@'
tRp4279
ag11
aa(lp4280
S'10.0101165771'
p4281
ag6
(g8
S'\xe6tD\xed\xee\x1d3@'
tRp4282
ag6
(g8
S'\x0c\x99\x012;:R@'
tRp4283
ag11
aa(lp4284
S'9.99915147864'
p4285
ag6
(g8
S'\xe6tD\xed\xee\x1d3@'
tRp4286
ag6
(g8
S'\xefGj]C:R@'
tRp4287
ag11
aa(lp4288
S'9.9293888637'
p4289
ag6
(g8
S'\xe6tD\xed\xee\x1d3@'
tRp4290
ag6
(g8
S'\xeb>\xcbED:R@'
tRp4291
ag11
aa(lp4292
S'10.7393951416'
p4293
ag6
(g8
S'\xe6tD\xed\xee\x1d3@'
tRp4294
ag6
(g8
S'\xe85,.E:R@'
tRp4295
ag11
aa(lp4296
S'10.150577892'
p4297
ag6
(g8
S'\xe6tD\xed\xee\x1d3@'
tRp4298
ag6
(g8
S'\xe5,\x8d\x16F:R@'
tRp4299
ag11
aa(lp4300
S'10.0791288134'
p4301
ag6
(g8
S'\xe6tD\xed\xee\x1d3@'
tRp4302
ag6
(g8
S'\xe2#\xee\xfeF:R@'
tRp4303
ag11
aa(lp4304
S'10.0768702879'
p4305
ag6
(g8
S'\xe6tD\xed\xee\x1d3@'
tRp4306
ag6
(g8
S'\xde\x1aO\xe7G:R@'
tRp4307
ag11
aa(lp4308
S'10.0593979318'
p4309
ag6
(g8
S'\xe6tD\xed\xee\x1d3@'
tRp4310
ag6
(g8
S'\xdb\x11\xb0\xcfH:R@'
tRp4311
ag11
aa(lp4312
S'10.1398008068'
p4313
ag6
(g8
S'\xe6tD\xed\xee\x1d3@'
tRp4314
ag6
(g8
S'\xd8\x08\x11\xb8I:R@'
tRp4315
ag11
aa(lp4316
S'9.80529785156'
p4317
ag6
(g8
S'\xe6tD\xed\xee\x1d3@'
tRp4318
ag6
(g8
S'\xd5\xffq\xa0J:R@'
tRp4319
ag11
aa(lp4320
S'8.88032531738'
p4321
ag6
(g8
S'\xe6tD\xed\xee\x1d3@'
tRp4322
ag6
(g8
S'\xcb\xe4\x94YM:R@'
tRp4323
ag11
aa(lp4324
S'9.48196411133'
p4325
ag6
(g8
S'\xf3ay\xd6\xf0\x1d3@'
tRp4326
ag6
(g8
S'\x0c\x99\x012;:R@'
tRp4327
ag11
aa(lp4328
S'10.3544316785'
p4329
ag6
(g8
S'\xf3ay\xd6\xf0\x1d3@'
tRp4330
ag6
(g8
S'\t\x90b\x1a<:R@'
tRp4331
ag11
aa(lp4332
S'10.0845130472'
p4333
ag6
(g8
S'\xf3ay\xd6\xf0\x1d3@'
tRp4334
ag6
(g8
S'\x06\x87\xc3\x02=:R@'
tRp4335
ag11
aa(lp4336
S'10.3696193695'
p4337
ag6
(g8
S'\xf3ay\xd6\xf0\x1d3@'
tRp4338
ag6
(g8
S'\x02~$\xeb=:R@'
tRp4339
ag11
aa(lp4340
S'10.164932251'
p4341
ag6
(g8
S'\xf3ay\xd6\xf0\x1d3@'
tRp4342
ag6
(g8
S'\xfft\x85\xd3>:R@'
tRp4343
ag11
aa(lp4344
S'8.60856628418'
p4345
ag6
(g8
S'\xf3ay\xd6\xf0\x1d3@'
tRp4346
ag6
(g8
S'\xefGj]C:R@'
tRp4347
ag11
aa(lp4348
S'9.99639476429'
p4349
ag6
(g8
S'\xf3ay\xd6\xf0\x1d3@'
tRp4350
ag6
(g8
S'\xeb>\xcbED:R@'
tRp4351
ag11
aa(lp4352
S'10.6831163679'
p4353
ag6
(g8
S'\xf3ay\xd6\xf0\x1d3@'
tRp4354
ag6
(g8
S'\xe85,.E:R@'
tRp4355
ag11
aa(lp4356
S'10.8322296143'
p4357
ag6
(g8
S'\xf3ay\xd6\xf0\x1d3@'
tRp4358
ag6
(g8
S'\xe2#\xee\xfeF:R@'
tRp4359
ag11
aa(lp4360
S'10.0675861762'
p4361
ag6
(g8
S'\xf3ay\xd6\xf0\x1d3@'
tRp4362
ag6
(g8
S'\xde\x1aO\xe7G:R@'
tRp4363
ag11
aa(lp4364
S'10.1770578195'
p4365
ag6
(g8
S'\xf3ay\xd6\xf0\x1d3@'
tRp4366
ag6
(g8
S'\xdb\x11\xb0\xcfH:R@'
tRp4367
ag11
aa(lp4368
S'9.86712137858'
p4369
ag6
(g8
S'\xf3ay\xd6\xf0\x1d3@'
tRp4370
ag6
(g8
S'\xd8\x08\x11\xb8I:R@'
tRp4371
ag11
aa(lp4372
S'10.0820075502'
p4373
ag6
(g8
S'\xf3ay\xd6\xf0\x1d3@'
tRp4374
ag6
(g8
S'\xd5\xffq\xa0J:R@'
tRp4375
ag11
aa(lp4376
S'10.0305173691'
p4377
ag6
(g8
S'\xf3ay\xd6\xf0\x1d3@'
tRp4378
ag6
(g8
S'\xd1\xf6\xd2\x88K:R@'
tRp4379
ag11
aa(lp4380
S'10.1966705322'
p4381
ag6
(g8
S'\xf3ay\xd6\xf0\x1d3@'
tRp4382
ag6
(g8
S'\xcb\xe4\x94YM:R@'
tRp4383
ag11
aa(lp4384
S'9.96050371443'
p4385
ag6
(g8
S'\x00O\xae\xbf\xf2\x1d3@'
tRp4386
ag6
(g8
S'\xfft\x85\xd3>:R@'
tRp4387
ag11
aa(lp4388
S'9.8368844425'
p4389
ag6
(g8
S'\x00O\xae\xbf\xf2\x1d3@'
tRp4390
ag6
(g8
S'\xfck\xe6\xbb?:R@'
tRp4391
ag11
aa(lp4392
S'10.3691074147'
p4393
ag6
(g8
S'\x00O\xae\xbf\xf2\x1d3@'
tRp4394
ag6
(g8
S'\xf8bG\xa4@:R@'
tRp4395
ag11
aa(lp4396
S'10.1835041046'
p4397
ag6
(g8
S'\x00O\xae\xbf\xf2\x1d3@'
tRp4398
ag6
(g8
S'\xf5Y\xa8\x8cA:R@'
tRp4399
ag11
aa(lp4400
S'10.468682029'
p4401
ag6
(g8
S'\x00O\xae\xbf\xf2\x1d3@'
tRp4402
ag6
(g8
S'\xf2P\tuB:R@'
tRp4403
ag11
aa(lp4404
S'10.6822662354'
p4405
ag6
(g8
S'\x00O\xae\xbf\xf2\x1d3@'
tRp4406
ag6
(g8
S'\xeb>\xcbED:R@'
tRp4407
ag11
aa(lp4408
S'10.1025309985'
p4409
ag6
(g8
S'\x00O\xae\xbf\xf2\x1d3@'
tRp4410
ag6
(g8
S'\xe85,.E:R@'
tRp4411
ag11
aa(lp4412
S'10.0536479671'
p4413
ag6
(g8
S'\x00O\xae\xbf\xf2\x1d3@'
tRp4414
ag6
(g8
S'\xe5,\x8d\x16F:R@'
tRp4415
ag11
aa(lp4416
S'10.0741676662'
p4417
ag6
(g8
S'\x00O\xae\xbf\xf2\x1d3@'
tRp4418
ag6
(g8
S'\xe2#\xee\xfeF:R@'
tRp4419
ag11
aa(lp4420
S'10.0520503267'
p4421
ag6
(g8
S'\x00O\xae\xbf\xf2\x1d3@'
tRp4422
ag6
(g8
S'\xde\x1aO\xe7G:R@'
tRp4423
ag11
aa(lp4424
S'10.0340864729'
p4425
ag6
(g8
S'\x00O\xae\xbf\xf2\x1d3@'
tRp4426
ag6
(g8
S'\xdb\x11\xb0\xcfH:R@'
tRp4427
ag11
aa(lp4428
S'9.0432107108'
p4429
ag6
(g8
S'\x00O\xae\xbf\xf2\x1d3@'
tRp4430
ag6
(g8
S'\xd1\xf6\xd2\x88K:R@'
tRp4431
ag11
aa(lp4432
S'10.1324005127'
p4433
ag6
(g8
S'\x0e<\xe3\xa8\xf4\x1d3@'
tRp4434
ag6
(g8
S'\xf2P\tuB:R@'
tRp4435
ag11
aa(lp4436
S'10.2215944178'
p4437
ag6
(g8
S'\x0e<\xe3\xa8\xf4\x1d3@'
tRp4438
ag6
(g8
S'\xefGj]C:R@'
tRp4439
ag11
aa(lp4440
S'10.5264263153'
p4441
ag6
(g8
S'\x0e<\xe3\xa8\xf4\x1d3@'
tRp4442
ag6
(g8
S'\xeb>\xcbED:R@'
tRp4443
ag11
aa(lp4444
S'9.84787615608'
p4445
ag6
(g8
S'\x0e<\xe3\xa8\xf4\x1d3@'
tRp4446
ag6
(g8
S'\xe85,.E:R@'
tRp4447
ag11
aa(lp4448
S'10.1688121572'
p4449
ag6
(g8
S'\x0e<\xe3\xa8\xf4\x1d3@'
tRp4450
ag6
(g8
S'\xe5,\x8d\x16F:R@'
tRp4451
ag11
aa(lp4452
S'9.93267157464'
p4453
ag6
(g8
S'\x0e<\xe3\xa8\xf4\x1d3@'
tRp4454
ag6
(g8
S'\xe2#\xee\xfeF:R@'
tRp4455
ag11
aa(lp4456
S'9.89293518066'
p4457
ag6
(g8
S'\x0e<\xe3\xa8\xf4\x1d3@'
tRp4458
ag6
(g8
S'\xd1\xf6\xd2\x88K:R@'
tRp4459
ag11
aa(lp4460
S'10.1009002686'
p4461
ag6
(g8
S'\x1b)\x18\x92\xf6\x1d3@'
tRp4462
ag6
(g8
S'\xe2#\xee\xfeF:R@'
tRp4463
ag11
aa(lp4464
S'10.1988408706'
p4465
ag6
(g8
S'\x1b)\x18\x92\xf6\x1d3@'
tRp4466
ag6
(g8
S'\xde\x1aO\xe7G:R@'
tRp4467
ag11
aa(lp4468
S'10.185175449'
p4469
ag6
(g8
S'\x1b)\x18\x92\xf6\x1d3@'
tRp4470
ag6
(g8
S'\xdb\x11\xb0\xcfH:R@'
tRp4471
ag11
aa(lp4472
S'10.0834400378'
p4473
ag6
(g8
S'\x1b)\x18\x92\xf6\x1d3@'
tRp4474
ag6
(g8
S'\xd8\x08\x11\xb8I:R@'
tRp4475
ag11
aa(lp4476
S'9.98129552724'
p4477
ag6
(g8
S'\x1b)\x18\x92\xf6\x1d3@'
tRp4478
ag6
(g8
S'\xd5\xffq\xa0J:R@'
tRp4479
ag11
aa(lp4480
S'9.28090776716'
p4481
ag6
(g8
S'\x1b)\x18\x92\xf6\x1d3@'
tRp4482
ag6
(g8
S'\xd1\xf6\xd2\x88K:R@'
tRp4483
ag11
aa(lp4484
S'9.55639321463'
p4485
ag6
(g8
S'\x1b)\x18\x92\xf6\x1d3@'
tRp4486
ag6
(g8
S'\xce\xed3qL:R@'
tRp4487
ag11
aa(lp4488
S'10.431137085'
p4489
ag6
(g8
S'\x1b)\x18\x92\xf6\x1d3@'
tRp4490
ag6
(g8
S'\xcb\xe4\x94YM:R@'
tRp4491
ag11
aa(lp4492
S'10.1191101074'
p4493
ag6
(g8
S'(\x16M{\xf8\x1d3@'
tRp4494
ag6
(g8
S'\xd5\xffq\xa0J:R@'
tRp4495
ag11
aa(lp4496
S'10.1116600662'
p4497
ag6
(g8
S'(\x16M{\xf8\x1d3@'
tRp4498
ag6
(g8
S'\xd1\xf6\xd2\x88K:R@'
tRp4499
ag11
aa(lp4500
S'10.0145060221'
p4501
ag6
(g8
S'(\x16M{\xf8\x1d3@'
tRp4502
ag6
(g8
S'\xce\xed3qL:R@'
tRp4503
ag11
aa(lp4504
S'9.12828063965'
p4505
ag6
(g8
S'(\x16M{\xf8\x1d3@'
tRp4506
ag6
(g8
S'\xcb\xe4\x94YM:R@'
tRp4507
ag11
aa(lp4508
S'10.0259424598'
p4509
ag6
(g8
S'6\x03\x82d\xfa\x1d3@'
tRp4510
ag6
(g8
S'\xd1\xf6\xd2\x88K:R@'
tRp4511
ag11
aa(lp4512
S'9.64344428567'
p4513
ag6
(g8
S'6\x03\x82d\xfa\x1d3@'
tRp4514
ag6
(g8
S'\xce\xed3qL:R@'
tRp4515
ag11
aa(lp4516
S'8.22889709473'
p4517
ag6
(g8
S'6\x03\x82d\xfa\x1d3@'
tRp4518
ag6
(g8
S'\xcb\xe4\x94YM:R@'
tRp4519
ag11
aa(lp4520
S'8.84104919434'
p4521
ag6
(g8
S'C\xf0\xb6M\xfc\x1d3@'
tRp4522
ag6
(g8
S'\xd1\xf6\xd2\x88K:R@'
tRp4523
ag11
aa(lp4524
S'9.76654597691'
p4525
ag6
(g8
S'C\xf0\xb6M\xfc\x1d3@'
tRp4526
ag6
(g8
S'\xce\xed3qL:R@'
tRp4527
ag11
aa(lp4528
S'10.4085235596'
p4529
ag6
(g8
S'C\xf0\xb6M\xfc\x1d3@'
tRp4530
ag6
(g8
S'\xcb\xe4\x94YM:R@'
tRp4531
ag11
aa(lp4532
S'9.82871345852'
p4533
ag6
(g8
S'P\xdd\xeb6\xfe\x1d3@'
tRp4534
ag6
(g8
S'\xce\xed3qL:R@'
tRp4535
ag11
aa(lp4536
S'9.8891398112'
p4537
ag6
(g8
S'P\xdd\xeb6\xfe\x1d3@'
tRp4538
ag6
(g8
S'\xcb\xe4\x94YM:R@'
tRp4539
ag11
aa(lp4540
S'10.0669487486'
p4541
ag6
(g8
S'^\xca  \x00\x1e3@'
tRp4542
ag6
(g8
S'\xcb\xe4\x94YM:R@'
tRp4543
ag11
aasS'RouteCoordinates'
p4544
(lp4545
sS'markers'
p4546
(lp4547
(lp4548
S'11.3565063477'
p4549
ag6
(g8
S'^\xe5G\xacH\x1d3@'
tRp4550
ag6
(g8
S'\xfft\x85\xd3>:R@'
tRp4551
aS'red'
p4552
aa(lp4553
S'11.5058746338'
p4554
ag6
(g8
S'\x93\x99\x1bQP\x1d3@'
tRp4555
ag6
(g8
S'\xb6mO\xfe\x0b:R@'
tRp4556
ag4552
aa(lp4557
S'11.4377365112'
p4558
ag6
(g8
S'\x93\x99\x1bQP\x1d3@'
tRp4559
ag6
(g8
S'\x92\nz\xfa\x15:R@'
tRp4560
ag4552
aa(lp4561
S'11.7363540649'
p4562
ag6
(g8
S'\x93\x99\x1bQP\x1d3@'
tRp4563
ag6
(g8
S'\x85\xe6\xfd\x9b\x19:R@'
tRp4564
ag4552
aa(lp4565
S'12.5691070557'
p4566
ag6
(g8
S'\xa1\x86P:R\x1d3@'
tRp4567
ag6
(g8
S'\xc0\x88,E\t:R@'
tRp4568
ag4552
aa(lp4569
S'11.8296051025'
p4570
ag6
(g8
S'\xaes\x85#T\x1d3@'
tRp4571
ag6
(g8
S'\x9f.\xf6X\x12:R@'
tRp4572
ag4552
aa(lp4573
S'15.3154885428'
p4574
ag6
(g8
S'\xaes\x85#T\x1d3@'
tRp4575
ag6
(g8
S'@)\xf2\xab,:R@'
tRp4576
ag4552
aa(lp4577
S'12.7795431955'
p4578
ag6
(g8
S'\xaes\x85#T\x1d3@'
tRp4579
ag6
(g8
S'0\xfc\xd651:R@'
tRp4580
ag4552
aa(lp4581
S'11.4602508545'
p4582
ag6
(g8
S'\xbb`\xba\x0cV\x1d3@'
tRp4583
ag6
(g8
S'\xd0\xb5G\xbb\x04:R@'
tRp4584
ag4552
aa(lp4585
S'11.1856231689'
p4586
ag6
(g8
S'\xbb`\xba\x0cV\x1d3@'
tRp4587
ag6
(g8
S'\xca\xa3\t\x8c\x06:R@'
tRp4588
ag4552
aa(lp4589
S'11.3892364502'
p4590
ag6
(g8
S'\xbb`\xba\x0cV\x1d3@'
tRp4591
ag6
(g8
S'\xb9v\xee\x15\x0b:R@'
tRp4592
ag4552
aa(lp4593
S'11.1632499695'
p4594
ag6
(g8
S'\xbb`\xba\x0cV\x1d3@'
tRp4595
ag6
(g8
S'\xacRr\xb7\x0e:R@'
tRp4596
ag4552
aa(lp4597
S'11.345199585'
p4598
ag6
(g8
S'\xc9M\xef\xf5W\x1d3@'
tRp4599
ag6
(g8
S'[q\xeah%:R@'
tRp4600
ag4552
aa(lp4601
S'11.7540283203'
p4602
ag6
(g8
S'\xc9M\xef\xf5W\x1d3@'
tRp4603
ag6
(g8
S'QV\r"(:R@'
tRp4604
ag4552
aa(lp4605
S'14.7217559814'
p4606
ag6
(g8
S'\xf1\x14\x8e\xb1]\x1d3@'
tRp4607
ag6
(g8
S'&\xe1\xf9\xee3:R@'
tRp4608
ag4552
aa(lp4609
S'12.2842559814'
p4610
ag6
(g8
S'\xfe\x01\xc3\x9a_\x1d3@'
tRp4611
ag6
(g8
S'\xcd\xac\xa8\xa3\x05:R@'
tRp4612
ag4552
aa(lp4613
S'11.9902801514'
p4614
ag6
(g8
S'\xfe\x01\xc3\x9a_\x1d3@'
tRp4615
ag6
(g8
S'7\x0e\x15e/:R@'
tRp4616
ag4552
aa(lp4617
S'11.5335464478'
p4618
ag6
(g8
S'\x19\xdc,mc\x1d3@'
tRp4619
ag6
(g8
S'#\xd8Z\xd74:R@'
tRp4620
ag4552
aa(lp4621
S'13.9394073486'
p4622
ag6
(g8
S'&\xc9aVe\x1d3@'
tRp4623
ag6
(g8
S'#\xd8Z\xd74:R@'
tRp4624
ag4552
aa(lp4625
S'16.3288040161'
p4626
ag6
(g8
S'A\xa3\xcb(i\x1d3@'
tRp4627
ag6
(g8
S'\xd7\xc7\x85\xea\x02:R@'
tRp4628
ag4552
aa(lp4629
S'11.5380096436'
p4630
ag6
(g8
S'A\xa3\xcb(i\x1d3@'
tRp4631
ag6
(g8
S'\xd4\xbe\xe6\xd2\x03:R@'
tRp4632
ag4552
aa(lp4633
S'11.7400436401'
p4634
ag6
(g8
S'A\xa3\xcb(i\x1d3@'
tRp4635
ag6
(g8
S'\xca\xa3\t\x8c\x06:R@'
tRp4636
ag4552
aa(lp4637
S'13.6817982992'
p4638
ag6
(g8
S'A\xa3\xcb(i\x1d3@'
tRp4639
ag6
(g8
S'\x06\x87\xc3\x02=:R@'
tRp4640
ag4552
aa(lp4641
S'11.2064239502'
p4642
ag6
(g8
S'N\x90\x00\x12k\x1d3@'
tRp4643
ag6
(g8
S'\xe7\xf4\xa0`\xfe9R@'
tRp4644
ag4552
aa(lp4645
S'11.170539856'
p4646
ag6
(g8
S'N\x90\x00\x12k\x1d3@'
tRp4647
ag6
(g8
S'\xfft\x85\xd3>:R@'
tRp4648
ag4552
aa(lp4649
S'17.5204772949'
p4650
ag6
(g8
S'N\x90\x00\x12k\x1d3@'
tRp4651
ag6
(g8
S'\xf5Y\xa8\x8cA:R@'
tRp4652
ag4552
aa(lp4653
S'12.6507670085'
p4654
ag6
(g8
S'N\x90\x00\x12k\x1d3@'
tRp4655
ag6
(g8
S'\xbe\xc0\x18\xfbP:R@'
tRp4656
ag4552
aa(lp4657
S'12.2604522705'
p4658
ag6
(g8
S'[}5\xfbl\x1d3@'
tRp4659
ag6
(g8
S'\xc6\x9ajt\x07:R@'
tRp4660
ag4552
aa(lp4661
S'13.4346364339'
p4662
ag6
(g8
S'[}5\xfbl\x1d3@'
tRp4663
ag6
(g8
S'\xf5Y\xa8\x8cA:R@'
tRp4664
ag4552
aa(lp4665
S'11.3868560791'
p4666
ag6
(g8
S'[}5\xfbl\x1d3@'
tRp4667
ag6
(g8
S'\xd8\x08\x11\xb8I:R@'
tRp4668
ag4552
aa(lp4669
S'11.866897583'
p4670
ag6
(g8
S'ijj\xe4n\x1d3@'
tRp4671
ag6
(g8
S'\xda\xd0$\x02\x02:R@'
tRp4672
ag4552
aa(lp4673
S'11.3479766846'
p4674
ag6
(g8
S'ijj\xe4n\x1d3@'
tRp4675
ag6
(g8
S'\x1c\xc6\x1c\xa86:R@'
tRp4676
ag4552
aa(lp4677
S'13.2328338623'
p4678
ag6
(g8
S'\x83D\xd4\xb6r\x1d3@'
tRp4679
ag6
(g8
S'\xea\xfd?x\xfd9R@'
tRp4680
ag4552
aa(lp4681
S'11.2214202881'
p4682
ag6
(g8
S'\x83D\xd4\xb6r\x1d3@'
tRp4683
ag6
(g8
S'\xc3\x91\xcb\\\x08:R@'
tRp4684
ag4552
aa(lp4685
S'12.6621398926'
p4686
ag6
(g8
S'\x9e\x1e>\x89v\x1d3@'
tRp4687
ag6
(g8
S'\xe1\xe2b1\x00:R@'
tRp4688
ag4552
aa(lp4689
S'12.0480041504'
p4690
ag6
(g8
S'\x9e\x1e>\x89v\x1d3@'
tRp4691
ag6
(g8
S'\xc3\x91\xcb\\\x08:R@'
tRp4692
ag4552
aa(lp4693
S'11.204460144'
p4694
ag6
(g8
S'\x9e\x1e>\x89v\x1d3@'
tRp4695
ag6
(g8
S'\xbd\x7f\x8d-\n:R@'
tRp4696
ag4552
aa(lp4697
S'11.9593353271'
p4698
ag6
(g8
S'\x9e\x1e>\x89v\x1d3@'
tRp4699
ag6
(g8
S'\x19\xbd}\x907:R@'
tRp4700
ag4552
aa(lp4701
S'16.1622772217'
p4702
ag6
(g8
S'\xb9\xf8\xa7[z\x1d3@'
tRp4703
ag6
(g8
S'\xca\xa3\t\x8c\x06:R@'
tRp4704
ag4552
aa(lp4705
S'11.4943695068'
p4706
ag6
(g8
S'\xb9\xf8\xa7[z\x1d3@'
tRp4707
ag6
(g8
S'\x16\xb4\xdex8:R@'
tRp4708
ag4552
aa(lp4709
S'11.6867828369'
p4710
ag6
(g8
S'\xc6\xe5\xdcD|\x1d3@'
tRp4711
ag6
(g8
S'\xc0\x88,E\t:R@'
tRp4712
ag4552
aa(lp4713
S'12.337020874'
p4714
ag6
(g8
S'\xc6\xe5\xdcD|\x1d3@'
tRp4715
ag6
(g8
S'\xd5\xffq\xa0J:R@'
tRp4716
ag4552
aa(lp4717
S'11.4055023193'
p4718
ag6
(g8
S'\xd3\xd2\x11.~\x1d3@'
tRp4719
ag6
(g8
S'\x13\xab?a9:R@'
tRp4720
ag4552
aa(lp4721
S'15.8441009521'
p4722
ag6
(g8
S'\xee\xac{\x00\x82\x1d3@'
tRp4723
ag6
(g8
S'\xb6mO\xfe\x0b:R@'
tRp4724
ag4552
aa(lp4725
S'11.2837860107'
p4726
ag6
(g8
S'\xee\xac{\x00\x82\x1d3@'
tRp4727
ag6
(g8
S'\xb7\xae\xda\xcbR:R@'
tRp4728
ag4552
aa(lp4729
S'11.173336792'
p4730
ag6
(g8
S'\t\x87\xe5\xd2\x85\x1d3@'
tRp4731
ag6
(g8
S'\xb6mO\xfe\x0b:R@'
tRp4732
ag4552
aa(lp4733
S'11.5507049561'
p4734
ag6
(g8
S'\x16t\x1a\xbc\x87\x1d3@'
tRp4735
ag6
(g8
S'\x0f\xa2\xa0I::R@'
tRp4736
ag4552
aa(lp4737
S'11.1793670654'
p4738
ag6
(g8
S'#aO\xa5\x89\x1d3@'
tRp4739
ag6
(g8
S'\xd5\xffq\xa0J:R@'
tRp4740
ag4552
aa(lp4741
S'11.5689544678'
p4742
ag6
(g8
S'1N\x84\x8e\x8b\x1d3@'
tRp4743
ag6
(g8
S'\xb3d\xb0\xe6\x0c:R@'
tRp4744
ag4552
aa(lp4745
S'11.8200836182'
p4746
ag6
(g8
S'1N\x84\x8e\x8b\x1d3@'
tRp4747
ag6
(g8
S'\xb7\xae\xda\xcbR:R@'
tRp4748
ag4552
aa(lp4749
S'11.4210739136'
p4750
ag6
(g8
S'K(\xee`\x8f\x1d3@'
tRp4751
ag6
(g8
S'\xb4\xa5;\xb4S:R@'
tRp4752
ag4552
aa(lp4753
S'11.8435897827'
p4754
ag6
(g8
S'Y\x15#J\x91\x1d3@'
tRp4755
ag6
(g8
S'\t\x90b\x1a<:R@'
tRp4756
ag4552
aa(lp4757
S'12.2164154053'
p4758
ag6
(g8
S'Y\x15#J\x91\x1d3@'
tRp4759
ag6
(g8
S'\xc1\xc9\xb7\x12P:R@'
tRp4760
ag4552
aa(lp4761
S'11.4014358521'
p4762
ag6
(g8
S'f\x02X3\x93\x1d3@'
tRp4763
ag6
(g8
S'\xb4\xa5;\xb4S:R@'
tRp4764
ag4552
aa(lp4765
S'13.1423797607'
p4766
ag6
(g8
S'\x81\xdc\xc1\x05\x97\x1d3@'
tRp4767
ag6
(g8
S'\xb4\xa5;\xb4S:R@'
tRp4768
ag4552
aa(lp4769
S'11.7077301025'
p4770
ag6
(g8
S'\x8e\xc9\xf6\xee\x98\x1d3@'
tRp4771
ag6
(g8
S'\x8c\xf8;\xcb\x17:R@'
tRp4772
ag4552
aa(lp4773
S'11.7046356201'
p4774
ag6
(g8
S'\x8e\xc9\xf6\xee\x98\x1d3@'
tRp4775
ag6
(g8
S'\xd1\xf6\xd2\x88K:R@'
tRp4776
ag4552
aa(lp4777
S'11.2601013184'
p4778
ag6
(g8
S'\x9b\xb6+\xd8\x9a\x1d3@'
tRp4779
ag6
(g8
S'WhKQ&:R@'
tRp4780
ag4552
aa(lp4781
S'11.95946757'
p4782
ag6
(g8
S'\xdeW4f\xa4\x1d3@'
tRp4783
ag6
(g8
S'n\xa7\xa4\xf6\x1f:R@'
tRp4784
ag4552
aa(lp4785
S'13.3720855713'
p4786
ag6
(g8
S'\xebDiO\xa6\x1d3@'
tRp4787
ag6
(g8
S'\xc1\xc9\xb7\x12P:R@'
tRp4788
ag4552
aa(lp4789
S'11.1976165771'
p4790
ag6
(g8
S'\xf81\x9e8\xa8\x1d3@'
tRp4791
ag6
(g8
S'\xd1\xf6\xd2\x88K:R@'
tRp4792
ag4552
aa(lp4793
S'13.4244537354'
p4794
ag6
(g8
S'\x13\x0c\x08\x0b\xac\x1d3@'
tRp4795
ag6
(g8
S'\xfck\xe6\xbb?:R@'
tRp4796
ag4552
aa(lp4797
S'11.1767883301'
p4798
ag6
(g8
S' \xf9<\xf4\xad\x1d3@'
tRp4799
ag6
(g8
S'\xb4\xa5;\xb4S:R@'
tRp4800
ag4552
aa(lp4801
S'11.4888153076'
p4802
ag6
(g8
S'.\xe6q\xdd\xaf\x1d3@'
tRp4803
ag6
(g8
S'\xd1\xf6\xd2\x88K:R@'
tRp4804
ag4552
aa(lp4805
S'11.9533843994'
p4806
ag6
(g8
S'.\xe6q\xdd\xaf\x1d3@'
tRp4807
ag6
(g8
S'\xb4\xa5;\xb4S:R@'
tRp4808
ag4552
aa(lp4809
S'11.1484222412'
p4810
ag6
(g8
S'V\xad\x10\x99\xb5\x1d3@'
tRp4811
ag6
(g8
S'\xd1\xf6\xd2\x88K:R@'
tRp4812
ag4552
aa(lp4813
S'11.2924346924'
p4814
ag6
(g8
S'c\x9aE\x82\xb7\x1d3@'
tRp4815
ag6
(g8
S'\xf2P\tuB:R@'
tRp4816
ag4552
aa(lp4817
S'11.3741607666'
p4818
ag6
(g8
S'p\x87zk\xb9\x1d3@'
tRp4819
ag6
(g8
S'\xd1\xf6\xd2\x88K:R@'
tRp4820
ag4552
aa(lp4821
S'12.4107557024'
p4822
ag6
(g8
S'p\x87zk\xb9\x1d3@'
tRp4823
ag6
(g8
S'\xc4\xd2V*O:R@'
tRp4824
ag4552
aa(lp4825
S'13.8487548828'
p4826
ag6
(g8
S'p\x87zk\xb9\x1d3@'
tRp4827
ag6
(g8
S'\xb1\x9c\x9c\x9cT:R@'
tRp4828
ag4552
aa(lp4829
S'11.4864349365'
p4830
ag6
(g8
S'~t\xafT\xbb\x1d3@'
tRp4831
ag6
(g8
S'\xf2P\tuB:R@'
tRp4832
ag4552
aa(lp4833
S'12.8674468994'
p4834
ag6
(g8
S'~t\xafT\xbb\x1d3@'
tRp4835
ag6
(g8
S'\xb1\x9c\x9c\x9cT:R@'
tRp4836
ag4552
aa(lp4837
S'11.2273712158'
p4838
ag6
(g8
S'\x8ba\xe4=\xbd\x1d3@'
tRp4839
ag6
(g8
S'\xefGj]C:R@'
tRp4840
ag4552
aa(lp4841
S'11.549118042'
p4842
ag6
(g8
S'\x8ba\xe4=\xbd\x1d3@'
tRp4843
ag6
(g8
S'\xd1\xf6\xd2\x88K:R@'
tRp4844
ag4552
aa(lp4845
S'11.1706390381'
p4846
ag6
(g8
S'\xa6;N\x10\xc1\x1d3@'
tRp4847
ag6
(g8
S'\xefGj]C:R@'
tRp4848
ag4552
aa(lp4849
S'11.9101409912'
p4850
ag6
(g8
S'\xa6;N\x10\xc1\x1d3@'
tRp4851
ag6
(g8
S'\xce\xed3qL:R@'
tRp4852
ag4552
aa(lp4853
S'13.0757293701'
p4854
ag6
(g8
S'\xa6;N\x10\xc1\x1d3@'
tRp4855
ag6
(g8
S'\xc7\xdb\xf5AN:R@'
tRp4856
ag4552
aa(lp4857
S'11.3497903006'
p4858
ag6
(g8
S'\xb3(\x83\xf9\xc2\x1d3@'
tRp4859
ag6
(g8
S'\xad\x93\xfd\x84U:R@'
tRp4860
ag4552
aa(lp4861
S'11.1706390381'
p4862
ag6
(g8
S'\xc0\x15\xb8\xe2\xc4\x1d3@'
tRp4863
ag6
(g8
S'\xce\xed3qL:R@'
tRp4864
ag4552
aa(lp4865
S'11.9146372477'
p4866
ag6
(g8
S'\xc0\x15\xb8\xe2\xc4\x1d3@'
tRp4867
ag6
(g8
S'\xc7\xdb\xf5AN:R@'
tRp4868
ag4552
aa(lp4869
S'11.4225616455'
p4870
ag6
(g8
S'\xdb\xef!\xb5\xc8\x1d3@'
tRp4871
ag6
(g8
S'\xeb>\xcbED:R@'
tRp4872
ag4552
aa(lp4873
S'11.1900787354'
p4874
ag6
(g8
S'\xe8\xdcV\x9e\xca\x1d3@'
tRp4875
ag6
(g8
S'\xe85,.E:R@'
tRp4876
ag4552
aa(lp4877
S'11.155960083'
p4878
ag6
(g8
S'\xe8\xdcV\x9e\xca\x1d3@'
tRp4879
ag6
(g8
S'\xce\xed3qL:R@'
tRp4880
ag4552
aa(lp4881
S'11.3073516846'
p4882
ag6
(g8
S'\xf6\xc9\x8b\x87\xcc\x1d3@'
tRp4883
ag6
(g8
S'\xcb\xe4\x94YM:R@'
tRp4884
ag4552
aa(lp4885
S'11.8565826416'
p4886
ag6
(g8
S'\x1e\x91*C\xd2\x1d3@'
tRp4887
ag6
(g8
S'\xe5,\x8d\x16F:R@'
tRp4888
ag4552
aa(lp4889
S'12.1803131104'
p4890
ag6
(g8
S'\x1e\x91*C\xd2\x1d3@'
tRp4891
ag6
(g8
S'\xce\xed3qL:R@'
tRp4892
ag4552
aa(lp4893
S'11.15675354'
p4894
ag6
(g8
S'\x1e\x91*C\xd2\x1d3@'
tRp4895
ag6
(g8
S'\xb7\xae\xda\xcbR:R@'
tRp4896
ag4552
aa(lp4897
S'18.6035461426'
p4898
ag6
(g8
S'+~_,\xd4\x1d3@'
tRp4899
ag6
(g8
S'\xbe\xc0\x18\xfbP:R@'
tRp4900
ag4552
aa(lp4901
S'12.0525665283'
p4902
ag6
(g8
S'8k\x94\x15\xd6\x1d3@'
tRp4903
ag6
(g8
S'\xe2#\xee\xfeF:R@'
tRp4904
ag4552
aa(lp4905
S'11.4261322021'
p4906
ag6
(g8
S'SE\xfe\xe7\xd9\x1d3@'
tRp4907
ag6
(g8
S'\xe2#\xee\xfeF:R@'
tRp4908
ag4552
aa(lp4909
S'11.9051818848'
p4910
ag6
(g8
S'`23\xd1\xdb\x1d3@'
tRp4911
ag6
(g8
S'\xd1\xf6\xd2\x88K:R@'
tRp4912
ag4552
aa(lp4913
S'11.945350647'
p4914
ag6
(g8
S'{\x0c\x9d\xa3\xdf\x1d3@'
tRp4915
ag6
(g8
S'\xd1\xf6\xd2\x88K:R@'
tRp4916
ag4552
aa(lp4917
S'11.3654327393'
p4918
ag6
(g8
S'\x88\xf9\xd1\x8c\xe1\x1d3@'
tRp4919
ag6
(g8
S'\xdb\x11\xb0\xcfH:R@'
tRp4920
ag4552
aa(lp4921
S'11.2357025146'
p4922
ag6
(g8
S'\xa3\xd3;_\xe5\x1d3@'
tRp4923
ag6
(g8
S'\xdb\x11\xb0\xcfH:R@'
tRp4924
ag4552
aa(lp4925
S'11.1742095947'
p4926
ag6
(g8
S'\xd8\x87\x0f\x04\xed\x1d3@'
tRp4927
ag6
(g8
S'\xefGj]C:R@'
tRp4928
ag4552
aa(lp4929
S'11.2538528442'
p4930
ag6
(g8
S'\xe6tD\xed\xee\x1d3@'
tRp4931
ag6
(g8
S'\xf2P\tuB:R@'
tRp4932
ag4552
aa(lp4933
S'11.1440582275'
p4934
ag6
(g8
S'\x00O\xae\xbf\xf2\x1d3@'
tRp4935
ag6
(g8
S'\xcb\xe4\x94YM:R@'
tRp4936
ag4552
aa(lp4937
S'11.5195617676'
p4938
ag6
(g8
S'\x0e<\xe3\xa8\xf4\x1d3@'
tRp4939
ag6
(g8
S'\xcb\xe4\x94YM:R@'
tRp4940
ag4552
aas.